
8aaaf200-2450-11e4-abe20002a5d5c51b.elf:     file format elf64-littleaarch64
8aaaf200-2450-11e4-abe20002a5d5c51b.elf
architecture: aarch64, flags 0x00000150:
HAS_SYMS, DYNAMIC, D_PAGED
start address 0x0000000000000bf0

Program Header:
    LOAD off    0x0000000000001000 vaddr 0x0000000000000000 paddr 0x0000000000000000 align 2**12
         filesz 0x0000000000026e00 memsz 0x0000000000026e00 flags r-x
    LOAD off    0x0000000000028000 vaddr 0x0000000000027000 paddr 0x0000000000027000 align 2**12
         filesz 0x00000000000005bc memsz 0x000000000000be68 flags rw-
 DYNAMIC off    0x0000000000028000 vaddr 0x0000000000027000 paddr 0x0000000000027000 align 2**3
         filesz 0x0000000000000110 memsz 0x0000000000000110 flags rw-
   STACK off    0x0000000000000000 vaddr 0x0000000000000000 paddr 0x0000000000000000 align 2**4
         filesz 0x0000000000000000 memsz 0x0000000000000000 flags rw-

Dynamic Section:
  HASH                 0x0000000000026a88
  GNU_HASH             0x0000000000026950
  STRTAB               0x0000000000026a50
  SYMTAB               0x00000000000269a8
  STRSZ                0x0000000000000036
  SYMENT               0x0000000000000018
  DEBUG                0x0000000000000000
  RELA                 0x0000000000026ab8
  RELASZ               0x0000000000000558
  RELAENT              0x0000000000000018
  FLAGS_1              0x0000000008000000
  RELACOUNT            0x0000000000000023
private flags = 0x0:

Sections:
Idx Name          Size      VMA               LMA               File off  Algn
  0 .text         0002159c  0000000000000000  0000000000000000  00001000  2**2
                  CONTENTS, ALLOC, LOAD, READONLY, CODE
  1 .eh_frame     00003d40  00000000000215a0  00000000000215a0  000225a0  2**3
                  CONTENTS, ALLOC, LOAD, READONLY, DATA
  2 .rodata       0000166e  00000000000252e0  00000000000252e0  000262e0  2**3
                  CONTENTS, ALLOC, LOAD, READONLY, DATA
  3 .gnu.hash     00000034  0000000000026950  0000000000026950  00027950  2**3
                  CONTENTS, ALLOC, LOAD, READONLY, DATA
  4 .ta_head      00000020  0000000000026988  0000000000026988  00027988  2**3
                  CONTENTS, ALLOC, LOAD, READONLY, DATA
  5 .dynsym       000000a8  00000000000269a8  00000000000269a8  000279a8  2**3
                  CONTENTS, ALLOC, LOAD, READONLY, DATA
  6 .dynstr       00000036  0000000000026a50  0000000000026a50  00027a50  2**0
                  CONTENTS, ALLOC, LOAD, READONLY, DATA
  7 .hash         00000030  0000000000026a88  0000000000026a88  00027a88  2**3
                  CONTENTS, ALLOC, LOAD, READONLY, DATA
  8 .rela.dyn     00000348  0000000000026ab8  0000000000026ab8  00027ab8  2**3
                  CONTENTS, ALLOC, LOAD, READONLY, DATA
  9 .dynamic      00000110  0000000000027000  0000000000027000  00028000  2**3
                  CONTENTS, ALLOC, LOAD, DATA
 10 .got          000000d0  0000000000027110  0000000000027110  00028110  2**3
                  CONTENTS, ALLOC, LOAD, DATA
 11 .rela.got     00000210  00000000000271e0  00000000000271e0  000281e0  2**3
                  CONTENTS, ALLOC, LOAD, READONLY, DATA
 12 .data         000001cc  00000000000273f0  00000000000273f0  000283f0  2**3
                  CONTENTS, ALLOC, LOAD, DATA
 13 .bss          0000b8a8  00000000000275c0  00000000000275c0  000285bc  2**3
                  ALLOC
 14 .debug_info   000148d2  0000000000000000  0000000000000000  000285bc  2**0
                  CONTENTS, READONLY, DEBUGGING, OCTETS
 15 .debug_abbrev 000039a3  0000000000000000  0000000000000000  0003ce8e  2**0
                  CONTENTS, READONLY, DEBUGGING, OCTETS
 16 .debug_aranges 000009e0  0000000000000000  0000000000000000  00040840  2**4
                  CONTENTS, READONLY, DEBUGGING, OCTETS
 17 .debug_macro  0001ae55  0000000000000000  0000000000000000  00041220  2**0
                  CONTENTS, READONLY, DEBUGGING, OCTETS
 18 .debug_line   00009fcf  0000000000000000  0000000000000000  0005c075  2**0
                  CONTENTS, READONLY, DEBUGGING, OCTETS
 19 .debug_str    0001c8d7  0000000000000000  0000000000000000  00066044  2**0
                  CONTENTS, READONLY, DEBUGGING, OCTETS
 20 .debug_line_str 00000b22  0000000000000000  0000000000000000  0008291b  2**0
                  CONTENTS, READONLY, DEBUGGING, OCTETS
 21 .comment      00000045  0000000000000000  0000000000000000  0008343d  2**0
                  CONTENTS, READONLY
 22 .debug_rnglists 0000025e  0000000000000000  0000000000000000  00083482  2**0
                  CONTENTS, READONLY, DEBUGGING, OCTETS
SYMBOL TABLE:
0000000000000000 l    d  .text	0000000000000000 .text
00000000000215a0 l    d  .eh_frame	0000000000000000 .eh_frame
00000000000252e0 l    d  .rodata	0000000000000000 .rodata
0000000000026950 l    d  .gnu.hash	0000000000000000 .gnu.hash
0000000000026988 l    d  .ta_head	0000000000000000 .ta_head
00000000000269a8 l    d  .dynsym	0000000000000000 .dynsym
0000000000026a50 l    d  .dynstr	0000000000000000 .dynstr
0000000000026a88 l    d  .hash	0000000000000000 .hash
0000000000026ab8 l    d  .rela.dyn	0000000000000000 .rela.dyn
0000000000027000 l    d  .dynamic	0000000000000000 .dynamic
0000000000027110 l    d  .got	0000000000000000 .got
00000000000271e0 l    d  .rela.got	0000000000000000 .rela.got
00000000000273f0 l    d  .data	0000000000000000 .data
00000000000275c0 l    d  .bss	0000000000000000 .bss
0000000000000000 l    d  .debug_info	0000000000000000 .debug_info
0000000000000000 l    d  .debug_abbrev	0000000000000000 .debug_abbrev
0000000000000000 l    d  .debug_aranges	0000000000000000 .debug_aranges
0000000000000000 l    d  .debug_macro	0000000000000000 .debug_macro
0000000000000000 l    d  .debug_line	0000000000000000 .debug_line
0000000000000000 l    d  .debug_str	0000000000000000 .debug_str
0000000000000000 l    d  .debug_line_str	0000000000000000 .debug_line_str
0000000000000000 l    d  .comment	0000000000000000 .comment
0000000000000000 l    d  .debug_rnglists	0000000000000000 .debug_rnglists
0000000000000000 l    df *ABS*	0000000000000000 media_crypto_ta.c
00000000000252e0 l     O .rodata	0000000000000010 default_enc_key
00000000000252f0 l     O .rodata	0000000000000040 default_hmac_key
0000000000000000 l     F .text	0000000000000078 free_cipher_state
0000000000000078 l     F .text	0000000000000078 free_hmac_state
00000000000000f0 l     F .text	000000000000004c load_key_store
000000000000013c l     F .text	00000000000000d8 make_secret_key
00000000000002ec l     F .text	000000000000004c inc_value
0000000000000338 l     F .text	0000000000000204 cipher_init
000000000000053c l     F .text	000000000000013c cipher_update
0000000000000678 l     F .text	0000000000000044 cipher_finish
00000000000006bc l     F .text	000000000000018c hmac_init
0000000000000848 l     F .text	0000000000000098 hmac_update
00000000000008e0 l     F .text	0000000000000124 hmac_final
0000000000000a04 l     F .text	0000000000000044 hmac_finish
0000000000000000 l    df *ABS*	0000000000000000 user_ta_header.c
0000000000025348 l     O .rodata	0000000000000001 __compound_literal.0
0000000000025349 l     O .rodata	0000000000000001 __compound_literal.1
000000000002534a l     O .rodata	0000000000000001 __compound_literal.2
000000000002534c l     O .rodata	0000000000000004 __compound_literal.3
0000000000025350 l     O .rodata	0000000000000004 __compound_literal.4
0000000000025354 l     O .rodata	0000000000000004 __compound_literal.5
0000000000025358 l     O .rodata	0000000000000001 __compound_literal.6
000000000002535c l     O .rodata	0000000000000004 __compound_literal.7
000000000002f5c0 l     O .bss	0000000000000001 stack_canary_inited.0
0000000000000000 l    df *ABS*	0000000000000000 stack_check.c
0000000000000000 l    df *ABS*	0000000000000000 trace.c
0000000000000ce0 l     F .text	0000000000000064 trace_level_to_string
00000000000254f8 l     O .rodata	0000000000000005 lvl_strs.0
0000000000000d44 l     F .text	0000000000000074 print_thread_id
0000000000000db8 l     F .text	0000000000000018 print_core_id
0000000000000dd0 l     F .text	0000000000000018 print_guest_id
0000000000000000 l    df *ABS*	0000000000000000 snprintk.c
0000000000025500 l     O .rodata	0000000000000011 hexdigits
0000000000025518 l     O .rodata	0000000000000011 HEXDIGITS
000000000000167c l     F .text	0000000000001c5c kprintf
0000000000001598 l     F .text	00000000000000e4 uuid2str
0000000000000000 l    df *ABS*	0000000000000000 memchr.c
0000000000000000 l    df *ABS*	0000000000000000 strlen.c
0000000000000000 l    df *ABS*	0000000000000000 trace_ext.c
0000000000000000 l    df *ABS*	0000000000000000 tee_api.c
000000000002f5d0 l     O .bss	0000000000000008 tee_api_instance_data
0000000000003778 l     F .text	0000000000000148 copy_param
00000000000038c0 l     F .text	000000000000014c copy_gp11_param
0000000000003a0c l     F .text	000000000000035c map_tmp_param
0000000000003d68 l     F .text	00000000000001a0 update_out_param
0000000000003f08 l     F .text	00000000000001a4 update_out_gp11_param
00000000000040ac l     F .text	00000000000000a0 bufs_intersect
000000000000414c l     F .text	0000000000000114 check_mem_access_rights_params
0000000000004260 l     F .text	0000000000000064 buf_overlaps_no_share_heap
00000000000042c4 l     F .text	0000000000000114 check_invoke_param
0000000000025720 l     O .rodata	000000000000000b __func__.0
000000000000523c l     F .text	0000000000000024 addr_is_in_no_share_heap
0000000000000000 l    df *ABS*	0000000000000000 tee_api_objects.c
0000000000000000 l    df *ABS*	0000000000000000 tee_api_operations.c
0000000000007cdc l     F .text	0000000000000030 _assert_trap
0000000000007d0c l     F .text	00000000000000dc __tee_alg_get_class
0000000000007de8 l     F .text	0000000000000248 __tee_alg_get_main_alg
0000000000008030 l     F .text	000000000000004c __tee_alg_get_key_type
000000000000807c l     F .text	0000000000000370 __tee_alg_get_digest_size
0000000000009cc8 l     F .text	000000000000008c reset_operation_state
000000000000a028 l     F .text	0000000000000390 set_operation_key2
000000000000a6a8 l     F .text	0000000000000070 init_hash_operation
00000000000257c8 l     O .rodata	0000000000000012 __func__.0
000000000000aea0 l     F .text	0000000000000538 tee_buffer_update
000000000000c544 l     F .text	000000000000019c ae_update_helper
0000000000000000 l    df *ABS*	0000000000000000 tee_api_panic.c
000000000000f33c l     F .text	0000000000000030 check_res
000000000000f36c l     F .text	0000000000000054 check_access
0000000000000000 l    df *ABS*	0000000000000000 tee_system_pta.c
000000000000f6a4 l     F .text	0000000000000024 reg_pair_to_64
000000000000f6c8 l     F .text	0000000000000018 high32_from_64
000000000000f6e0 l     F .text	0000000000000014 low32_from_64
000000000000f6f4 l     F .text	0000000000000048 reg_pair_from_64
000000000000f73c l     F .text	0000000000000090 invoke_system_pta
000000000002f5d8 l     O .bss	0000000000000008 sess.3
00000000000258b0 l     O .rodata	0000000000000010 uuid.2
00000000000258c0 l     O .rodata	000000000000000a __func__.1
00000000000258d0 l     O .rodata	0000000000000017 __func__.0
0000000000000000 l    df *ABS*	0000000000000000 user_ta_entry.c
000000000000fb40 l     F .text	0000000000000014 memtag_init_ops
000000000000fb54 l     F .text	0000000000000008 __utee_gprof_init
000000000000fb5c l     F .text	0000000000000008 __utee_gprof_fini
0000000000027500 l     O .data	0000000000000010 ta_sessions
000000000002f640 l     O .bss	0000000000000001 init_done
0000000000027510 l     O .data	0000000000000010 __phdr_info_head
000000000002f648 l     O .bss	0000000000000008 _num_mod_init
000000000000fb64 l     F .text	00000000000000e0 _init_iterate_phdr_cb
0000000000025940 l     O .rodata	0000000000000016 __func__.0
000000000000fc44 l     F .text	0000000000000194 _get_fn_array
000000000000ffd4 l     F .text	00000000000000d0 _fini_iterate_phdr_cb
00000000000100c8 l     F .text	0000000000000084 get_memtag_implementation
000000000001014c l     F .text	00000000000000cc init_instance
0000000000010218 l     F .text	0000000000000020 uninit_instance
0000000000010238 l     F .text	0000000000000064 ta_header_save_params
000000000001029c l     F .text	000000000000005c ta_header_get_session
00000000000102f8 l     F .text	00000000000000fc ta_header_add_session
00000000000103f4 l     F .text	0000000000000130 ta_header_remove_session
0000000000010524 l     F .text	000000000000018c to_utee_params
00000000000106b0 l     F .text	0000000000000140 from_utee_params
00000000000107f0 l     F .text	0000000000000104 entry_open_session
00000000000108f4 l     F .text	000000000000004c entry_close_session
0000000000010940 l     F .text	00000000000000dc entry_invoke_command
0000000000000000 l    df *ABS*	0000000000000000 utee_syscalls_a64.o
0000000000000000 l    df *ABS*	0000000000000000 abort.c
0000000000000000 l    df *ABS*	0000000000000000 assert.c
0000000000000000 l    df *ABS*	0000000000000000 tee_api_arith_mpi.c
0000000000010e0c l     F .text	0000000000000040 api_panic
0000000000010e4c l     F .text	0000000000000040 mpi_panic
000000000002f650 l     O .bss	0000000000003800 data.18
0000000000025a70 l     O .rodata	0000000000000012 __func__.17
0000000000010ef0 l     F .text	00000000000000d8 copy_mpi_to_bigint
0000000000010fc8 l     F .text	00000000000000f8 get_mpi
0000000000025a88 l     O .rodata	0000000000000008 __func__.16
0000000000025a90 l     O .rodata	000000000000000f __func__.15
0000000000025aa0 l     O .rodata	000000000000001f __func__.14
0000000000025ac0 l     O .rodata	0000000000000019 __func__.13
0000000000025ae0 l     O .rodata	0000000000000015 __func__.12
0000000000011bfc l     F .text	0000000000000180 bigint_binary
0000000000025af8 l     O .rodata	000000000000000e __func__.11
0000000000011d7c l     F .text	000000000000020c bigint_binary_mod
0000000000025b08 l     O .rodata	0000000000000012 __func__.10
0000000000025b20 l     O .rodata	000000000000000e __func__.9
0000000000025b30 l     O .rodata	000000000000000e __func__.8
0000000000025b40 l     O .rodata	000000000000000e __func__.7
0000000000025b50 l     O .rodata	0000000000000011 __func__.6
0000000000025b68 l     O .rodata	0000000000000018 __func__.5
0000000000012838 l     F .text	000000000000002c mpi_is_odd
0000000000012864 l     F .text	000000000000003c mpi_is_even
0000000000025b80 l     O .rodata	0000000000000011 __func__.4
0000000000012ae4 l     F .text	0000000000000824 mpi_egcd
0000000000025b98 l     O .rodata	0000000000000009 __func__.3
0000000000025ba8 l     O .rodata	000000000000001d __func__.2
0000000000013618 l     F .text	000000000000003c rng_read
0000000000025bc8 l     O .rodata	0000000000000019 __func__.1
0000000000025be8 l     O .rodata	0000000000000015 __func__.0
0000000000000000 l    df *ABS*	0000000000000000 tee_api_property.c
0000000000025c00 l     O .rodata	0000000000000004 __compound_literal.0
0000000000025c04 l     O .rodata	0000000000000004 __compound_literal.1
0000000000025c08 l     O .rodata	0000000000000004 __compound_literal.2
0000000000025c0c l     O .rodata	0000000000000004 __compound_literal.3
0000000000013ab0 l     F .text	00000000000000b0 propset_get
0000000000013b60 l     F .text	0000000000000254 propget_get_ext_prop
0000000000013db4 l     F .text	0000000000000054 is_propset_pseudo_handle
0000000000013e08 l     F .text	0000000000000294 propget_get_property
0000000000000000 l    df *ABS*	0000000000000000 tcb.c
00000000000150cc l     F .text	0000000000000020 write_tpidr_el0
00000000000150ec l     F .text	0000000000000030 _assert_trap
0000000000032e50 l     O .bss	0000000000000008 _tcb
0000000000032e58 l     O .bss	0000000000000008 _tls_size
0000000000025d50 l     O .rodata	0000000000000010 __func__.1
0000000000025d60 l     O .rodata	0000000000000010 __func__.0
0000000000000000 l    df *ABS*	0000000000000000 base64.c
0000000000025d70 l     O .rodata	0000000000000041 base64_table
000000000001595c l     F .text	0000000000000084 get_idx
0000000000000000 l    df *ABS*	0000000000000000 bignum.c
0000000000015cfc l     F .text	0000000000000030 mbedtls_mpi_zeroize
0000000000015d2c l     F .text	0000000000000040 mpi_init
00000000000161ec l     F .text	0000000000000090 mbedtls_mpi_resize_clear
0000000000016490 l     F .text	000000000000002c mpi_sint_abs
00000000000167e4 l     F .text	00000000000000c8 mpi_get_digit
0000000000016bc8 l     F .text	0000000000000180 mpi_write_hlp
0000000000017d64 l     F .text	0000000000000114 add_sub_mpi
00000000000183dc l     F .text	00000000000000d0 mbedtls_int_div_int
0000000000018f98 l     F .text	0000000000000034 mpi_montg_init
0000000000018ff4 l     F .text	0000000000000070 mpi_montmul
00000000000190a4 l     F .text	0000000000000098 mpi_montred
0000000000019174 l     F .text	000000000000009c mpi_select
0000000000025dd0 l     O .rodata	00000000000002a0 small_prime
000000000001a620 l     F .text	0000000000000118 mpi_check_small_factors
000000000001a738 l     F .text	000000000000035c mpi_miller_rabin
0000000000026070 l     O .rodata	0000000000000024 gcd_pairs
0000000000000000 l    df *ABS*	0000000000000000 bignum_core.c
000000000001b604 l     F .text	0000000000000044 mbedtls_bswap32
000000000001b75c l     F .text	0000000000000070 mpi_bigendian_to_host_c
000000000001b7cc l     F .text	0000000000000020 mpi_bigendian_to_host
000000000001ce50 l     F .text	0000000000000088 mbedtls_mpi_core_ct_uint_table_lookup
000000000001d104 l     F .text	000000000000006c exp_mod_get_window_size
000000000001d1e8 l     F .text	000000000000011c exp_mod_precompute_window
0000000000000000 l    df *ABS*	0000000000000000 constant_time.c
000000000001d7e8 l     F .text	0000000000000060 mbedtls_ct_uchar_mask_of_range
000000000001d894 l     F .text	0000000000000024 mbedtls_ct_size_gt
000000000001d968 l     F .text	0000000000000068 mbedtls_ct_cond_select_sign
000000000001dce4 l     F .text	000000000000013c mbedtls_ct_mem_move_to_left
0000000000000000 l    df *ABS*	0000000000000000 platform_util.c
000000000001e6a4 l     F .text	0000000000000064 mbedtls_get_unaligned_uint32.localalias
000000000001e708 l     F .text	0000000000000030 mbedtls_put_unaligned_uint32.localalias
0000000000027580 l     O .data	0000000000000008 memset_func
0000000000000000 l    df *ABS*	0000000000000000 bget_malloc.c
000000000001e900 l     F .text	0000000000000030 _assert_trap
000000000001e930 l     F .text	000000000000002c memset_unchecked
000000000001e95c l     F .text	000000000000002c memcpy_unchecked
000000000001e988 l     F .text	00000000000000cc buf_get_pos
0000000000026820 l     O .rodata	0000000000000005 __func__.7
0000000000026828 l     O .rodata	0000000000000006 __func__.6
0000000000026830 l     O .rodata	0000000000000006 __func__.5
0000000000026838 l     O .rodata	0000000000000005 __func__.4
0000000000026840 l     O .rodata	0000000000000006 __func__.3
000000000001f700 l     F .text	0000000000000014 malloc_lock
000000000001f714 l     F .text	0000000000000018 malloc_unlock
0000000000027588 l     O .data	0000000000000030 malloc_ctx
000000000001f72c l     F .text	0000000000000018 print_oom
000000000001f744 l     F .text	000000000000006c bget_buf_size
0000000000026848 l     O .rodata	000000000000000e __func__.2
000000000001f7b0 l     F .text	0000000000000034 maybe_tag_buf
000000000001f7e4 l     F .text	0000000000000028 maybe_untag_buf
000000000001f80c l     F .text	0000000000000014 strip_tag
000000000001f820 l     F .text	0000000000000018 tag_asan_free
000000000001f838 l     F .text	000000000000006c raw_malloc_return_hook
000000000001f8a4 l     F .text	0000000000000014 raw_malloc_validate_pools
000000000001f8b8 l     F .text	0000000000000034 bpool_foreach_iterator_init
000000000001f8ec l     F .text	0000000000000128 bpool_foreach_pool
0000000000026858 l     O .rodata	0000000000000013 __func__.1
000000000001fa14 l     F .text	00000000000000fc bpool_foreach
000000000002009c l     F .text	0000000000000050 free_helper
0000000000020148 l     F .text	0000000000000034 realloc_unlocked
0000000000020278 l     F .text	0000000000000030 get_payload_start_size
00000000000202f0 l     F .text	0000000000000048 gen_malloc_add_pool
0000000000020338 l     F .text	0000000000000050 gen_malloc_buffer_is_within_alloced
0000000000020388 l     F .text	0000000000000050 gen_malloc_buffer_overlaps_heap
0000000000026870 l     O .rodata	0000000000000014 __func__.0
0000000000000000 l    df *ABS*	0000000000000000 snprintf.c
0000000000000000 l    df *ABS*	0000000000000000 memcpy.c
0000000000000000 l    df *ABS*	0000000000000000 memmove.c
0000000000000000 l    df *ABS*	0000000000000000 memset.c
0000000000000000 l    df *ABS*	0000000000000000 strcmp.c
0000000000000000 l    df *ABS*	0000000000000000 strlcpy.c
0000000000000000 l    df *ABS*	0000000000000000 mempool.c
000000000002113c l     F .text	0000000000000030 _assert_trap
000000000002116c l     F .text	00000000000000cc init_mpool
0000000000026918 l     O .rodata	000000000000000b __func__.2
0000000000021238 l     F .text	0000000000000014 get_pool
000000000002124c l     F .text	0000000000000014 put_pool
0000000000026928 l     O .rodata	0000000000000013 __func__.1
0000000000026940 l     O .rodata	000000000000000e __func__.0
0000000000000000 l    df *ABS*	0000000000000000 consttime_memcmp.c
0000000000000000 l    df *ABS*	0000000000000000 
0000000000027000 l     O *ABS*	0000000000000000 _DYNAMIC
0000000000027128 l     O *ABS*	0000000000000000 _GLOBAL_OFFSET_TABLE_
00000000000036fc g     F .text	000000000000007c putchar
000000000001123c g     F .text	0000000000000038 __GP11_TEE_BigIntConvertFromOctetString
0000000000006378 g     F .text	00000000000001d0 TEE_PopulateTransientObject
000000000001c20c g     F .text	000000000000010c mbedtls_mpi_core_add_if
000000000000c364 g     F .text	0000000000000050 __GP11_TEE_AEInit
0000000000013844 g     F .text	0000000000000034 TEE_BigIntConvertToFMM
0000000000012584 g     F .text	0000000000000034 TEE_BigIntSquareMod
00000000000116fc g     F .text	000000000000021c TEE_BigIntShiftRight
0000000000020420 g     F .text	00000000000001b8 raw_malloc_add_pool
000000000000f9d4 g     F .text	000000000000016c tee_invoke_supp_plugin
000000000001ced8 g     F .text	0000000000000100 mbedtls_mpi_core_fill_random
0000000000015e80 g     F .text	0000000000000174 mbedtls_mpi_grow
000000000000a718 g     F .text	0000000000000088 TEE_DigestUpdate
0000000000014d00 g     F .text	00000000000001d8 __GP11_TEE_GetPropertyName
0000000000005260 g     F .text	0000000000000114 TEE_Realloc
000000000001bf18 g     F .text	00000000000001f8 mbedtls_mpi_core_shift_r
000000000000a3b8 g     F .text	000000000000005c TEE_SetOperationKey2
000000000000bf64 g     F .text	00000000000000bc __GP11_TEE_MACComputeFinal
000000000000f668 g     F .text	000000000000003c __utee_check_inout_annotation
000000000001fc7c g     F .text	0000000000000058 raw_free
0000000000003598 g     F .text	000000000000012c printf
0000000000011bb8 g     F .text	0000000000000044 TEE_BigIntAbs
000000000000b674 g     F .text	00000000000000bc __GP11_TEE_CipherUpdate
0000000000006718 g     F .text	000000000000006c TEE_InitRefAttribute
0000000000010ae0 g     F .text	000000000000000c _utee_log
0000000000004748 g     F .text	00000000000001dc TEE_InvokeTACommand
000000000000685c g     F .text	000000000000006c __GP11_TEE_InitValueAttribute
000000000000f3c0 g     F .text	0000000000000064 __utee_check_outbuf_annotation
000000000001bdc0 g     F .text	0000000000000158 mbedtls_mpi_core_write_be
0000000000015d90 g     F .text	0000000000000040 mbedtls_mpi_init_mempool
0000000000010c60 g     F .text	000000000000000c _utee_cryp_random_number_generate
00000000000171e8 g     F .text	0000000000000040 mbedtls_mpi_write_binary
000000000000c960 g     F .text	0000000000000338 TEE_AEEncryptFinal
00000000000013bc g     F .text	0000000000000064 vsnprintk
0000000000017f7c g     F .text	00000000000000a4 mbedtls_mpi_sub_int
000000000000d86c g     F .text	0000000000000250 __GP11_TEE_AsymmetricDecrypt
0000000000020b9c g     F .text	000000000000020c memmove
00000000000208c0 g     F .text	00000000000000f8 snprintf
0000000000011680 g     F .text	000000000000007c TEE_BigIntCmpS32
0000000000004dbc g     F .text	0000000000000030 __GP11_TEE_MemMove
00000000000274f8 g     O .data	0000000000000008 __stack_chk_guard
000000000001e324 g     F .text	00000000000002ec mbedtls_ct_rsaes_pkcs1_v15_unpadding
00000000000067f0 g     F .text	000000000000006c TEE_InitValueAttribute
0000000000015ff4 g     F .text	00000000000001f8 mbedtls_mpi_shrink
0000000000004e7c g     F .text	0000000000000034 __GP11_TEE_MemFill
0000000000011f88 g     F .text	0000000000000038 TEE_BigIntAdd
0000000000010c00 g     F .text	000000000000000c _utee_cryp_obj_restrict_usage
0000000000006784 g     F .text	000000000000006c __GP11_TEE_InitRefAttribute
0000000000025338 g     O .rodata	0000000000000008 ta_heap_size
00000000000062ac g     F .text	00000000000000cc TEE_ResetTransientObject
0000000000010ca8 g     F .text	000000000000000c _utee_asymm_operate
00000000000156bc g     F .text	0000000000000030 _base64_enc_len
00000000000168ac g     F .text	000000000000031c mbedtls_mpi_read_string
0000000000006c40 g     F .text	0000000000000174 __GP11_TEE_GenerateKey
000000000000ad08 g     F .text	0000000000000168 TEE_CipherInit
000000000001c40c g     F .text	00000000000007b0 mbedtls_mpi_core_mla
0000000000011ff8 g     F .text	00000000000000f4 TEE_BigIntNeg
0000000000010cfc g     F .text	000000000000000c _utee_storage_free_enum
0000000000000000 g       .text	0000000000000000 __text_start
0000000000014f7c g     F .text	0000000000000150 TEE_GetNextProperty
00000000000073d8 g     F .text	0000000000000078 TEE_StartPersistentObjectEnumerator
0000000000017474 g     F .text	000000000000004c mbedtls_mpi_shift_r
0000000000020890 g     F .text	0000000000000030 malloc_buffer_overlaps_heap
0000000000010bac g     F .text	000000000000000c _utee_hash_init
0000000000012504 g     F .text	0000000000000040 TEE_BigIntSubMod
000000000001abac g     F .text	00000000000004a0 mbedtls_mpi_gen_prime
0000000000014934 g     F .text	00000000000000ac TEE_GetPropertyAsBinaryBlock
000000000001655c g     F .text	0000000000000060 mbedtls_mpi_get_bit
000000000001cfd8 g     F .text	000000000000012c mbedtls_mpi_core_random
0000000000025340 g     O .rodata	0000000000000008 __ta_no_share_heap_size
0000000000017108 g     F .text	00000000000000a0 mbedtls_mpi_read_binary
000000000000c1f4 g     F .text	0000000000000170 TEE_AEInit
0000000000000de8 g     F .text	00000000000000f0 trace_printf
0000000000019064 g     F .text	0000000000000040 mbedtls_mpi_montmul
0000000000010d68 g     F .text	000000000000000c _utee_cache_operation
0000000000020a1c g     F .text	0000000000000180 memcpy
000000000001d304 g     F .text	0000000000000220 mbedtls_mpi_core_exp_mod
0000000000013878 g     F .text	00000000000000e0 TEE_BigIntConvertFromFMM
000000000000f31c g     F .text	0000000000000020 TEE_Panic
000000000000a464 g     F .text	0000000000000244 TEE_CopyOperation
00000000000036c4 g     F .text	0000000000000038 puts
0000000000013958 g     F .text	0000000000000158 TEE_BigIntComputeFMM
0000000000005030 g     F .text	000000000000003c TEE_GetREETime
0000000000007294 g     F .text	00000000000000b4 TEE_AllocatePersistentObjectEnumerator
00000000000273f0 g     O .data	0000000000000108 ta_props
000000000000d14c g     F .text	0000000000000268 TEE_AsymmetricEncrypt
0000000000005218 g     F .text	0000000000000024 __GP11_TEE_Malloc
0000000000004574 g     F .text	0000000000000190 __GP11_TEE_OpenTASession
000000000000f48c g     F .text	0000000000000044 __utee_check_instring_annotation
0000000000020048 g     F .text	0000000000000054 malloc
0000000000014c94 g     F .text	0000000000000028 TEE_FreePropertyEnumerator
000000000001d7c4 g     F .text	0000000000000024 mbedtls_ct_mpi_uint_mask
000000000000ae70 g     F .text	0000000000000030 __GP11_TEE_CipherInit
0000000000006ad0 g     F .text	0000000000000170 TEE_GenerateKey
00000000000209b8 g     F .text	0000000000000064 vsnprintf
00000000000275b8 g     O .data	0000000000000004 trace_level
0000000000006ee8 g     F .text	0000000000000040 __GP11_TEE_OpenPersistentObject
00000000000115f0 g     F .text	0000000000000090 TEE_BigIntCmp
00000000000254a8 g     O .rodata	0000000000000008 ta_num_props
000000000001f070 g     F .text	0000000000000138 bgetr
0000000000010cc0 g     F .text	000000000000000c _utee_storage_obj_open
0000000000004e18 g     F .text	0000000000000030 __GP11_TEE_MemCompare
000000000002145c g     F .text	0000000000000048 mempool_free
000000000000b3d8 g     F .text	000000000000029c TEE_CipherUpdate
0000000000010bb8 g     F .text	000000000000000c _utee_hash_update
0000000000011274 g     F .text	00000000000000dc TEE_BigIntConvertToOctetString
000000000000994c g     F .text	00000000000002d4 TEE_GetOperationInfoMultiple
0000000000016790 g     F .text	0000000000000030 mbedtls_mpi_bitlen
000000000001194c g     F .text	0000000000000084 TEE_BigIntGetBit
0000000000025330 g     O .rodata	0000000000000003 trace_ext_prefix
0000000000010d20 g     F .text	000000000000000c _utee_storage_next_enum
000000000001fc44 g     F .text	0000000000000038 raw_malloc
000000000001ef7c g     F .text	00000000000000f4 bgetz
000000000001d848 g     F .text	000000000000004c mbedtls_ct_size_bool_eq
0000000000004d80 g     F .text	0000000000000010 TEE_GetInstanceData
0000000000004eec g     F .text	0000000000000048 TEE_Wait
0000000000018020 g     F .text	00000000000002b0 mbedtls_mpi_mul_mpi
0000000000011918 g     F .text	0000000000000034 __GP11_TEE_BigIntShiftRight
000000000001e79c g     F .text	0000000000000030 mbedtls_put_unaligned_uint64
0000000000005430 g     F .text	0000000000000028 TEE_CacheFlush
0000000000000ed8 g     F .text	00000000000003cc trace_vprintf
000000000000021c g     F .text	0000000000000008 TA_DestroyEntryPoint
0000000000015d6c g     F .text	0000000000000024 mbedtls_mpi_init
0000000000010cd8 g     F .text	000000000000000c _utee_storage_obj_del
00000000000166f0 g     F .text	00000000000000a0 mbedtls_mpi_lsb
000000000000bb2c g     F .text	00000000000000d4 __GP11_TEE_CipherDoFinal
0000000000010d98 g     F .text	000000000000005c _assert_log
000000000000c7f4 g     F .text	000000000000016c __GP11_TEE_AEUpdate
0000000000010b94 g     F .text	000000000000000c _utee_cryp_state_copy
0000000000013814 g     F .text	0000000000000014 TEE_BigIntFMMContextSizeInU32
000000000000f8d8 g     F .text	00000000000000fc tee_unmap
000000000000c020 g     F .text	0000000000000190 TEE_MACCompareFinal
000000000001d920 g     F .text	0000000000000048 mbedtls_ct_uint_if
00000000000071cc g     F .text	0000000000000098 TEE_RenamePersistentObject
000000000000a7d0 g     F .text	0000000000000204 TEE_DigestDoFinal
0000000000006548 g     F .text	00000000000001d0 __GP11_TEE_PopulateTransientObject
0000000000010e8c g     F .text	0000000000000064 _TEE_MathAPI_Init
000000000001e7cc g     F .text	00000000000000f0 mbedtls_xor
000000000001511c g     F .text	0000000000000434 __utee_tcb_init
0000000000017e78 g     F .text	0000000000000030 mbedtls_mpi_add_mpi
0000000000010d74 g     F .text	0000000000000024 abort
000000000001a018 g     F .text	00000000000000b0 mbedtls_mpi_random
0000000000000c4c g     F .text	0000000000000030 __stack_chk_fail
000000000000f59c g     F .text	000000000000003c __utee_check_out_annotation
00000000000275c0 g     O .bss	0000000000008000 ta_heap
00000000000125b8 g     F .text	000000000000016c TEE_BigIntInvMod
000000000000a7a0 g     F .text	0000000000000030 __GP11_TEE_DigestUpdate
000000000000fdd8 g     F .text	00000000000001fc __utee_call_elf_init_fn
0000000000005884 g     F .text	0000000000000124 __GP11_TEE_GetObjectInfo
00000000000002b4 g     F .text	0000000000000038 TA_CloseSessionEntryPoint
0000000000010b1c g     F .text	000000000000000c _utee_close_ta_session
0000000000013788 g     F .text	0000000000000034 __GP11_TEE_BigIntInitFMMContext
000000000000d604 g     F .text	0000000000000268 TEE_AsymmetricDecrypt
0000000000005abc g     F .text	000000000000010c __GP11_TEE_GetObjectInfo1
0000000000006db4 g     F .text	0000000000000134 TEE_OpenPersistentObject
000000000001d5c0 g     F .text	0000000000000060 mbedtls_mpi_core_check_zero_ct
0000000000017ea8 g     F .text	0000000000000030 mbedtls_mpi_sub_mpi
00000000000214a4 g     F .text	00000000000000f8 consttime_memcmp
0000000000010ad4 g     F .text	000000000000000c _utee_return
0000000000010aec g     F .text	000000000000000c __utee_panic
000000000001d704 g     F .text	000000000000009c mbedtls_ct_memcmp
0000000000015550 g     F .text	0000000000000040 __tls_get_addr
0000000000000a48 g     F .text	00000000000001a8 TA_InvokeCommandEntryPoint
00000000000100a4 g     F .text	0000000000000024 __utee_call_elf_fini_fn
00000000000202cc g     F .text	0000000000000024 free_wipe
00000000000212f0 g     F .text	0000000000000088 mempool_alloc
0000000000010ac8 g     F .text	000000000000000c _utee_panic
00000000000203e0 g     F .text	0000000000000040 raw_malloc_init_ctx
0000000000021378 g     F .text	00000000000000e4 mempool_calloc
0000000000010d5c g     F .text	000000000000000c _utee_cryp_obj_generate_key
0000000000010d44 g     F .text	000000000000000c _utee_storage_obj_trunc
00000000000068c8 g     F .text	00000000000000b0 TEE_CopyObjectAttributes
0000000000027520 g     O .data	0000000000000060 tee_props
0000000000010b4c g     F .text	000000000000000c _utee_unmask_cancellation
0000000000014c6c g     F .text	0000000000000028 TEE_ResetPropertyEnumerator
00000000000200ec g     F .text	000000000000005c calloc
000000000000506c g     F .text	00000000000001ac TEE_Malloc
0000000000004c64 g     F .text	00000000000000c8 TEE_CheckMemoryAccessRights
000000000001e6a4 g     F .text	0000000000000064 mbedtls_get_unaligned_uint32
00000000000149e0 g     F .text	0000000000000100 TEE_GetPropertyAsUUID
0000000000010af8 g     F .text	000000000000000c _utee_get_property
000000000000a9d4 g     F .text	00000000000000bc __GP11_TEE_DigestDoFinal
0000000000011a44 g     F .text	00000000000000c4 TEE_BigIntSetBit
00000000000164bc g     F .text	00000000000000a0 mbedtls_mpi_lset
000000000000a414 g     F .text	0000000000000050 __GP11_TEE_SetOperationKey2
0000000000007788 g     F .text	00000000000000f4 TEE_ReadObjectData
0000000000005ce0 g     F .text	0000000000000154 TEE_GetObjectBufferAttribute
0000000000000224 g     F .text	0000000000000090 TA_OpenSessionEntryPoint
000000000001d524 g     F .text	000000000000009c mbedtls_mpi_core_sub_int
0000000000009834 g     F .text	0000000000000064 TEE_FreeOperation
0000000000015590 g     F .text	000000000000012c dl_iterate_phdr
0000000000032e68 g       .bss	0000000000000000 __ftrace_buf_end
000000000002f5e0 g     O .bss	0000000000000004 ta_param_types
0000000000018c64 g     F .text	00000000000000ac mbedtls_mpi_div_int
0000000000005480 g     F .text	0000000000000168 __utee_from_attr
000000000001bc78 g     F .text	0000000000000148 mbedtls_mpi_core_write_le
000000000001aa94 g     F .text	0000000000000118 mbedtls_mpi_is_prime_ext
0000000000013654 g     F .text	00000000000000c4 TEE_BigIntIsProbablePrime
000000000001e708 g     F .text	0000000000000030 mbedtls_put_unaligned_uint32
00000000000182d0 g     F .text	000000000000010c mbedtls_mpi_mul_int
000000000000716c g     F .text	0000000000000060 TEE_CloseAndDeletePersistentObject1
0000000000019210 g     F .text	0000000000000afc mbedtls_mpi_exp_mod
000000000001de20 g     F .text	0000000000000114 mbedtls_mpi_safe_cond_assign
000000000001409c g     F .text	00000000000003d0 TEE_GetPropertyAsString
000000000001e150 g     F .text	00000000000001d4 mbedtls_mpi_lt_mpi_ct
000000000000cd98 g     F .text	00000000000002e4 TEE_AEDecryptFinal
00000000000110c0 g     F .text	0000000000000084 TEE_BigIntInit
0000000000011350 g     F .text	0000000000000098 __GP11_TEE_BigIntConvertToOctetString
0000000000011b08 g     F .text	00000000000000b0 TEE_BigIntAssign
000000000000f4d0 g     F .text	0000000000000064 __utee_check_outstring_annotation
0000000000004d90 g     F .text	000000000000002c TEE_MemMove
000000000001e8bc g     F .text	0000000000000044 mbedtls_platform_zeroize
0000000000011170 g     F .text	00000000000000cc TEE_BigIntConvertFromOctetString
0000000000010c9c g     F .text	000000000000000c _utee_authenc_dec_final
00000000000174c0 g     F .text	00000000000001b8 mbedtls_mpi_cmp_abs
0000000000010d2c g     F .text	000000000000000c _utee_storage_obj_read
000000000000bc00 g     F .text	00000000000000b0 TEE_MACInit
000000000000dabc g     F .text	0000000000000234 TEE_AsymmetricSignDigest
00000000000032d8 g     F .text	00000000000001b8 memchr
0000000000004b6c g     F .text	000000000000007c TEE_UnmaskCancellation
0000000000005758 g     F .text	000000000000012c TEE_GetObjectInfo
000000000001b04c g     F .text	00000000000005b8 mbedtls_mpi_self_test
000000000000f424 g     F .text	0000000000000068 __utee_check_gp11_outbuf_annotation
0000000000010d50 g     F .text	000000000000000c _utee_storage_obj_seek
000000000000c6e0 g     F .text	0000000000000114 TEE_AEUpdate
00000000000061e0 g     F .text	00000000000000cc TEE_FreeTransientObject
000000000001b980 g     F .text	0000000000000118 mbedtls_mpi_core_cond_swap
0000000000010b40 g     F .text	000000000000000c _utee_check_access_rights
000000000001bb9c g     F .text	00000000000000dc mbedtls_mpi_core_read_be
0000000000004924 g     F .text	00000000000001d0 __GP11_TEE_InvokeTACommand
0000000000017898 g     F .text	000000000000009c mbedtls_mpi_cmp_int
00000000000159e0 g     F .text	000000000000031c _base64_dec
0000000000009898 g     F .text	0000000000000034 __GP11_TEE_FreeOperation
0000000000010d08 g     F .text	000000000000000c _utee_storage_reset_enum
000000000001dba4 g     F .text	0000000000000140 mbedtls_ct_base64_dec_value
000000000000e8b8 g     F .text	0000000000000060 rand
000000000000f5d8 g     F .text	0000000000000048 __utee_check_attr_in_annotation
0000000000010c84 g     F .text	000000000000000c _utee_authenc_update_payload
00000000000098cc g     F .text	0000000000000080 TEE_GetOperationInfo
0000000000012460 g     F .text	0000000000000064 TEE_BigIntMod
0000000000018dec g     F .text	00000000000001ac mbedtls_mpi_mod_int
000000000000dcf0 g     F .text	0000000000000240 __GP11_TEE_AsymmetricSignDigest
0000000000017068 g     F .text	00000000000000a0 mbedtls_mpi_read_binary_le
000000000001224c g     F .text	0000000000000214 TEE_BigIntDiv
0000000000010c18 g     F .text	000000000000000c _utee_cryp_obj_alloc
0000000000032e68 g       .bss	0000000000000000 __ftrace_buf_start
0000000000021088 g     F .text	00000000000000b4 strlcpy
000000000001da78 g     F .text	000000000000012c mbedtls_ct_base64_enc_char
000000000001627c g     F .text	0000000000000190 mbedtls_mpi_copy
000000000001b648 g     F .text	0000000000000064 mbedtls_mpi_core_clz
000000000000e918 g     F .text	0000000000000a04 TEE_IsAlgorithmSupported
0000000000014ae0 g     F .text	0000000000000100 TEE_GetPropertyAsIdentity
0000000000001534 g     F .text	0000000000000064 __vsprintf
0000000000014724 g     F .text	0000000000000100 TEE_GetPropertyAsU64
0000000000010b7c g     F .text	000000000000000c _utee_set_ta_time
0000000000010b28 g     F .text	000000000000000c _utee_invoke_ta_command
000000000001e674 g     F .text	0000000000000030 mbedtls_put_unaligned_uint16
0000000000005c78 g     F .text	0000000000000068 TEE_RestrictObjectUsage1
000000000002017c g     F .text	0000000000000054 realloc
000000000001640c g     F .text	0000000000000084 mbedtls_mpi_swap
0000000000021260 g     F .text	0000000000000090 mempool_alloc_pool
00000000000120ec g     F .text	0000000000000134 TEE_BigIntMul
0000000000009d54 g     F .text	0000000000000050 TEE_ResetOperation
00000000000203d8 g     F .text	0000000000000008 raw_malloc_get_ctx_size
0000000000017228 g     F .text	000000000000024c mbedtls_mpi_shift_l
0000000000017678 g     F .text	0000000000000220 mbedtls_mpi_cmp_mpi
0000000000004e48 g     F .text	0000000000000034 TEE_MemFill
0000000000020830 g     F .text	0000000000000030 malloc_add_pool
000000000000bce0 g     F .text	00000000000000c8 TEE_MACUpdate
0000000000000cd0 g     F .text	0000000000000010 trace_get_level
0000000000017934 g     F .text	00000000000001fc mbedtls_mpi_add_abs
0000000000005bc8 g     F .text	00000000000000b0 TEE_RestrictObjectUsage
00000000000137d8 g     F .text	0000000000000020 TEE_BigIntFMMSizeInU32
000000000001451c g     F .text	0000000000000108 TEE_GetPropertyAsBool
000000000001fe50 g     F .text	00000000000001f8 raw_realloc
0000000000013718 g     F .text	0000000000000028 TEE_BigIntInitFMM
0000000000006080 g     F .text	0000000000000048 TEE_CloseObject
0000000000010bd0 g     F .text	000000000000000c _utee_cipher_init
0000000000010a1c g     F .text	00000000000000ac __utee_entry
0000000000014624 g     F .text	0000000000000100 TEE_GetPropertyAsU32
000000000002159c g       .text	0000000000000000 __text_end
0000000000012724 g     F .text	0000000000000114 TEE_BigIntRelativePrime
0000000000018d10 g     F .text	00000000000000dc mbedtls_mpi_mod_mpi
000000000001e038 g     F .text	0000000000000118 mbedtls_mpi_core_lt_ct
0000000000010bf4 g     F .text	000000000000000c _utee_cryp_obj_get_info
000000000001c318 g     F .text	00000000000000f4 mbedtls_mpi_core_sub
000000000001f5ac g     F .text	0000000000000154 bpool
0000000000014be0 g     F .text	000000000000008c TEE_AllocatePropertyEnumerator
0000000000010b88 g     F .text	000000000000000c _utee_cryp_state_alloc
0000000000004af4 g     F .text	0000000000000078 TEE_GetCancellationFlag
00000000000070bc g     F .text	0000000000000068 __GP11_TEE_CreatePersistentObject
000000000001e610 g     F .text	0000000000000064 mbedtls_get_unaligned_uint16
0000000000019d0c g     F .text	000000000000025c mbedtls_mpi_gcd
0000000000004fd8 g     F .text	0000000000000058 TEE_SetTAPersistentTime
00000000000171a8 g     F .text	0000000000000040 mbedtls_mpi_write_binary_le
0000000000020da8 g     F .text	00000000000001cc memset
000000000001fb10 g     F .text	0000000000000134 raw_memalign
0000000000004f34 g     F .text	00000000000000a4 TEE_GetTAPersistentTime
0000000000009fe0 g     F .text	0000000000000048 __GP11_TEE_SetOperationKey
000000000000cc98 g     F .text	0000000000000100 __GP11_TEE_AEEncryptFinal
000000000001e738 g     F .text	0000000000000064 mbedtls_get_unaligned_uint64
00000000000012a4 g     F .text	0000000000000024 dhex_dump
000000000001b7ec g     F .text	00000000000000ac mbedtls_mpi_core_bigendian_to_host
0000000000006f28 g     F .text	0000000000000194 TEE_CreatePersistentObject
0000000000004be8 g     F .text	000000000000007c TEE_MaskCancellation
000000000000c3b4 g     F .text	00000000000000cc TEE_AEUpdateAAD
0000000000007a24 g     F .text	0000000000000090 TEE_TruncateObjectData
0000000000010c0c g     F .text	000000000000000c _utee_cryp_obj_get_attr
00000000000059a8 g     F .text	0000000000000114 TEE_GetObjectInfo1
0000000000010be8 g     F .text	000000000000000c _utee_cipher_final
0000000000000c7c g     F .text	0000000000000054 trace_set_level
000000000001d620 g     F .text	0000000000000054 mbedtls_mpi_core_to_mont_rep
0000000000005ee4 g     F .text	000000000000019c TEE_GetObjectValueAttribute
0000000000009da4 g     F .text	000000000000023c TEE_SetOperationKey
000000000001d8b8 g     F .text	0000000000000068 mbedtls_ct_mpi_uint_lt
0000000000005e34 g     F .text	00000000000000b0 __GP11_TEE_GetObjectBufferAttribute
0000000000010ba0 g     F .text	000000000000000c _utee_cryp_state_free
0000000000020f74 g     F .text	0000000000000114 strcmp
0000000000010b10 g     F .text	000000000000000c _utee_open_ta_session
00000000000114ac g     F .text	0000000000000144 TEE_BigIntConvertToS32
0000000000011fc0 g     F .text	0000000000000038 TEE_BigIntSub
0000000000007cac g     F .text	0000000000000030 __GP11_TEE_SeekObjectData
0000000000000c44 g     F .text	0000000000000008 tahead_get_trace_level
0000000000010d14 g     F .text	000000000000000c _utee_storage_start_enum
0000000000007adc g     F .text	00000000000001d0 TEE_SeekObjectData
000000000000f7cc g     F .text	000000000000010c tee_map_zi
0000000000007ab4 g     F .text	0000000000000028 __GP11_TEE_TruncateObjectData
000000000001913c g     F .text	0000000000000038 mbedtls_mpi_montred
00000000000201d0 g     F .text	000000000000005c memalign
000000000001d7a0 g     F .text	0000000000000024 mbedtls_ct_uint_mask
000000000000b730 g     F .text	00000000000003fc TEE_CipherDoFinal
0000000000011144 g     F .text	000000000000002c __GP11_TEE_BigIntInit
00000000000113e8 g     F .text	00000000000000c4 TEE_BigIntConvertFromS32
0000000000017ed8 g     F .text	00000000000000a4 mbedtls_mpi_add_int
0000000000010c90 g     F .text	000000000000000c _utee_authenc_enc_final
0000000000020860 g     F .text	0000000000000030 malloc_buffer_is_within_alloced
0000000000010c24 g     F .text	000000000000000c _utee_cryp_obj_close
000000000000e88c g     F .text	000000000000002c __GP11_TEE_GenerateRandom
000000000001376c g     F .text	000000000000001c TEE_BigIntInitFMMContext
0000000000010b58 g     F .text	000000000000000c _utee_mask_cancellation
000000000002f628 g     O .bss	0000000000000008 __ta_no_share_malloc_ctx
0000000000010ce4 g     F .text	000000000000000c _utee_storage_obj_rename
00000000000075ec g     F .text	000000000000019c __GP11_TEE_GetNextPersistentObject
0000000000007930 g     F .text	00000000000000c4 TEE_WriteObjectData
0000000000007390 g     F .text	0000000000000048 TEE_ResetPersistentObjectEnumerator
0000000000004d2c g     F .text	0000000000000030 __GP11_TEE_CheckMemoryAccessRights
0000000000012220 g     F .text	000000000000002c TEE_BigIntSquare
0000000000010d38 g     F .text	000000000000000c _utee_storage_obj_write
000000000001b6ac g     F .text	00000000000000b0 mbedtls_mpi_core_bitlen
0000000000000214 g     F .text	0000000000000008 TA_CreateEntryPoint
0000000000000bf0 g     F .text	0000000000000054 __ta_entry
000000000002f5c0 g     O .bss	0000000000000000 __ta_no_share_heap
0000000000010c78 g     F .text	000000000000000c _utee_authenc_update_aad
0000000000018fcc g     F .text	0000000000000028 mbedtls_mpi_montg_init
00000000000012c8 g     F .text	00000000000000f4 snprintk
00000000000119d0 g     F .text	0000000000000074 TEE_BigIntGetBitCount
0000000000010c48 g     F .text	000000000000000c _utee_cryp_obj_copy
000000000000c480 g     F .text	00000000000000c4 __GP11_TEE_AEUpdateAAD
0000000000012544 g     F .text	0000000000000040 TEE_BigIntMulMod
000000000001a0c8 g     F .text	0000000000000558 mbedtls_mpi_inv_mod
000000000000f620 g     F .text	0000000000000048 __utee_check_gp11_attr_in_annotation
000000000000e374 g     F .text	000000000000026c TEE_DeriveKey
000000000002f5e8 g     O .bss	0000000000000040 ta_params
00000000000184ac g     F .text	00000000000007b8 mbedtls_mpi_div_mpi
000000000000f534 g     F .text	0000000000000068 __utee_check_gp11_outstring_annotation
00000000000167c0 g     F .text	0000000000000024 mbedtls_mpi_size
000000000001ea54 g     F .text	0000000000000528 bget
000000000000787c g     F .text	00000000000000b4 __GP11_TEE_ReadObjectData
00000000000060c8 g     F .text	0000000000000048 TEE_AllocateTransientObject
000000000000bda8 g     F .text	0000000000000030 __GP11_TEE_MACUpdate
0000000000013828 g     F .text	000000000000001c __GP11_TEE_BigIntFMMContextSizeInU32
0000000000014cbc g     F .text	0000000000000044 TEE_StartPropertyEnumerator
0000000000010b64 g     F .text	000000000000000c _utee_wait
00000000000165bc g     F .text	0000000000000134 mbedtls_mpi_set_bit
000000000001b898 g     F .text	000000000000009c mbedtls_mpi_core_uint_le_mpi
000000000000539c g     F .text	000000000000006c TEE_Free
0000000000005458 g     F .text	0000000000000028 TEE_CacheInvalidate
0000000000010df4 g     F .text	0000000000000018 _assert_break
000000000001d170 g     F .text	0000000000000078 mbedtls_mpi_core_exp_mod_working_limbs
00000000000124c4 g     F .text	0000000000000040 TEE_BigIntAddMod
000000000001d9d0 g     F .text	00000000000000a8 mbedtls_ct_mpi_uint_cond_assign
0000000000013740 g     F .text	000000000000002c __GP11_TEE_BigIntInitFMM
0000000000010b70 g     F .text	000000000000000c _utee_get_time
000000000001c110 g     F .text	00000000000000fc mbedtls_mpi_core_add
0000000000014ed8 g     F .text	00000000000000a4 TEE_GetPropertyName
0000000000005374 g     F .text	0000000000000028 __GP11_TEE_Realloc
00000000000083ec g     F .text	0000000000001448 TEE_AllocateOperation
0000000000010c3c g     F .text	000000000000000c _utee_cryp_obj_populate
000000000001ba98 g     F .text	0000000000000104 mbedtls_mpi_core_read_le
0000000000009c20 g     F .text	00000000000000a8 __GP11_TEE_GetOperationInfoMultiple
00000000000055e8 g     F .text	0000000000000170 __utee_from_gp11_attr
000000000000e84c g     F .text	0000000000000040 TEE_GenerateRandom
000000000000aa90 g     F .text	0000000000000278 TEE_DigestExtract
0000000000004dec g     F .text	000000000000002c TEE_MemCompare
0000000000010bdc g     F .text	000000000000000c _utee_cipher_update
0000000000001420 g     F .text	0000000000000114 __vsnprintf
000000000002f630 g     O .bss	0000000000000010 __elf_phdr_info
0000000000007348 g     F .text	0000000000000048 TEE_FreePersistentObjectEnumerator
00000000000043d8 g     F .text	000000000000019c TEE_OpenTASession
000000000000e5e0 g     F .text	000000000000026c __GP11_TEE_DeriveKey
000000000001d674 g     F .text	0000000000000090 mbedtls_mpi_core_from_mont_rep
000000000000d07c g     F .text	00000000000000d0 __GP11_TEE_AEDecryptFinal
0000000000003564 g     F .text	000000000000002c trace_ext_puts
000000000001446c g     F .text	00000000000000b0 __GP11_TEE_GetPropertyAsString
00000000000206fc g     F .text	0000000000000134 raw_malloc_buffer_is_within_alloced
0000000000003590 g     F .text	0000000000000008 trace_ext_get_thread_id
00000000000205d8 g     F .text	0000000000000124 raw_malloc_buffer_overlaps_heap
0000000000007124 g     F .text	0000000000000048 TEE_CloseAndDeletePersistentObject
0000000000010c54 g     F .text	000000000000000c _utee_cryp_derive_key
0000000000015dd0 g     F .text	00000000000000b0 mbedtls_mpi_free
000000000000bcb0 g     F .text	0000000000000030 __GP11_TEE_MACInit
000000000000e14c g     F .text	0000000000000228 __GP11_TEE_AsymmetricVerifyDigest
0000000000010c30 g     F .text	000000000000000c _utee_cryp_obj_reset
0000000000005408 g     F .text	0000000000000028 TEE_CacheClean
0000000000010b04 g     F .text	000000000000000c _utee_get_property_name_to_index
000000000001cc48 g     F .text	000000000000015c mbedtls_mpi_core_montmul
000000000001fcd4 g     F .text	000000000000017c raw_calloc
00000000000156ec g     F .text	0000000000000270 _base64_enc
000000000001df34 g     F .text	0000000000000104 mbedtls_mpi_safe_cond_swap
0000000000010c6c g     F .text	000000000000000c _utee_authenc_init
0000000000006978 g     F .text	0000000000000158 TEE_CopyObjectAttributes1
0000000000007264 g     F .text	0000000000000030 __GP11_TEE_RenamePersistentObject
0000000000003490 g     F .text	00000000000000d4 strlen
0000000000013308 g     F .text	0000000000000310 TEE_BigIntComputeExtendedGcd
0000000000010cf0 g     F .text	000000000000000c _utee_storage_alloc_enum
00000000000128a0 g     F .text	0000000000000244 TEE_BigIntExpMod
0000000000004eb0 g     F .text	000000000000003c TEE_GetSystemTime
0000000000010cb4 g     F .text	000000000000000c _utee_asymm_verify
0000000000026988 g     O .ta_head	0000000000000020 ta_head
000000000001f1a8 g     F .text	0000000000000404 brel
0000000000014824 g     F .text	0000000000000110 __GP11_TEE_GetPropertyAsBinaryBlock
0000000000017b30 g     F .text	0000000000000234 mbedtls_mpi_sub_abs
0000000000019f68 g     F .text	00000000000000b0 mbedtls_mpi_fill_random
0000000000006110 g     F .text	00000000000000d0 __GP11_TEE_AllocateTransientObject
0000000000004d5c g     F .text	0000000000000024 TEE_SetInstanceData
000000000000d3b4 g     F .text	0000000000000250 __GP11_TEE_AsymmetricEncrypt
0000000000010b34 g     F .text	000000000000000c _utee_get_cancellation_flag
000000000001b934 g     F .text	000000000000004c mbedtls_mpi_core_cond_assign
0000000000016d48 g     F .text	0000000000000320 mbedtls_mpi_write_string
000000000002022c g     F .text	000000000000004c aligned_alloc
000000000001cbbc g     F .text	000000000000008c mbedtls_mpi_core_montmul_init
0000000000007450 g     F .text	000000000000019c TEE_GetNextPersistentObject
00000000000137bc g     F .text	000000000000001c TEE_BigIntInitFMMContext1
000000000000c1b0 g     F .text	0000000000000044 __GP11_TEE_MACCompareFinal
00000000000079f4 g     F .text	0000000000000030 __GP11_TEE_WriteObjectData
000000000001cda4 g     F .text	00000000000000ac mbedtls_mpi_core_get_mont_r2_unsafe
0000000000004704 g     F .text	0000000000000044 TEE_CloseTASession
000000000000df30 g     F .text	000000000000021c TEE_AsymmetricVerifyDigest
0000000000010ccc g     F .text	000000000000000c _utee_storage_obj_create
00000000000137f8 g     F .text	000000000000001c __GP11_TEE_BigIntFMMSizeInU32
00000000000202a8 g     F .text	0000000000000024 free
000000000000bdd8 g     F .text	000000000000018c TEE_MACComputeFinal
0000000000032e60 g     O .bss	0000000000000008 mbedtls_mpi_mempool
0000000000010bc4 g     F .text	000000000000000c _utee_hash_final



Disassembly of section .text:

0000000000000000 <free_cipher_state>:
free_cipher_state():
/home/hfut/phytium-pi-os/output/build/phytium-optee-v4.6.0/app/media_crypto/ta/media_crypto_ta.c:66
       0:	a9be7bfd 	stp	x29, x30, [sp, #-32]!
       4:	910003fd 	mov	x29, sp
       8:	f9000fe0 	str	x0, [sp, #24]
/home/hfut/phytium-pi-os/output/build/phytium-optee-v4.6.0/app/media_crypto/ta/media_crypto_ta.c:67
       c:	f9400fe0 	ldr	x0, [sp, #24]
      10:	f100001f 	cmp	x0, #0x0
      14:	540002c0 	b.eq	6c <free_cipher_state+0x6c>  // b.none
/home/hfut/phytium-pi-os/output/build/phytium-optee-v4.6.0/app/media_crypto/ta/media_crypto_ta.c:70
      18:	f9400fe0 	ldr	x0, [sp, #24]
      1c:	f9400000 	ldr	x0, [x0]
      20:	f100001f 	cmp	x0, #0x0
      24:	540000c0 	b.eq	3c <free_cipher_state+0x3c>  // b.none
/home/hfut/phytium-pi-os/output/build/phytium-optee-v4.6.0/app/media_crypto/ta/media_crypto_ta.c:71
      28:	f9400fe0 	ldr	x0, [sp, #24]
      2c:	f9400000 	ldr	x0, [x0]
      30:	94002601 	bl	9834 <TEE_FreeOperation>
/home/hfut/phytium-pi-os/output/build/phytium-optee-v4.6.0/app/media_crypto/ta/media_crypto_ta.c:72
      34:	f9400fe0 	ldr	x0, [sp, #24]
      38:	f900001f 	str	xzr, [x0]
/home/hfut/phytium-pi-os/output/build/phytium-optee-v4.6.0/app/media_crypto/ta/media_crypto_ta.c:75
      3c:	f9400fe0 	ldr	x0, [sp, #24]
      40:	f9400400 	ldr	x0, [x0, #8]
      44:	f100001f 	cmp	x0, #0x0
      48:	540000c0 	b.eq	60 <free_cipher_state+0x60>  // b.none
/home/hfut/phytium-pi-os/output/build/phytium-optee-v4.6.0/app/media_crypto/ta/media_crypto_ta.c:76
      4c:	f9400fe0 	ldr	x0, [sp, #24]
      50:	f9400400 	ldr	x0, [x0, #8]
      54:	9400180b 	bl	6080 <TEE_CloseObject>
/home/hfut/phytium-pi-os/output/build/phytium-optee-v4.6.0/app/media_crypto/ta/media_crypto_ta.c:77
      58:	f9400fe0 	ldr	x0, [sp, #24]
      5c:	f900041f 	str	xzr, [x0, #8]
/home/hfut/phytium-pi-os/output/build/phytium-optee-v4.6.0/app/media_crypto/ta/media_crypto_ta.c:80
      60:	f9400fe0 	ldr	x0, [sp, #24]
      64:	b900101f 	str	wzr, [x0, #16]
      68:	14000002 	b	70 <free_cipher_state+0x70>
/home/hfut/phytium-pi-os/output/build/phytium-optee-v4.6.0/app/media_crypto/ta/media_crypto_ta.c:68
      6c:	d503201f 	nop
/home/hfut/phytium-pi-os/output/build/phytium-optee-v4.6.0/app/media_crypto/ta/media_crypto_ta.c:81
      70:	a8c27bfd 	ldp	x29, x30, [sp], #32
      74:	d65f03c0 	ret

0000000000000078 <free_hmac_state>:
free_hmac_state():
/home/hfut/phytium-pi-os/output/build/phytium-optee-v4.6.0/app/media_crypto/ta/media_crypto_ta.c:84
      78:	a9be7bfd 	stp	x29, x30, [sp, #-32]!
      7c:	910003fd 	mov	x29, sp
      80:	f9000fe0 	str	x0, [sp, #24]
/home/hfut/phytium-pi-os/output/build/phytium-optee-v4.6.0/app/media_crypto/ta/media_crypto_ta.c:85
      84:	f9400fe0 	ldr	x0, [sp, #24]
      88:	f100001f 	cmp	x0, #0x0
      8c:	540002c0 	b.eq	e4 <free_hmac_state+0x6c>  // b.none
/home/hfut/phytium-pi-os/output/build/phytium-optee-v4.6.0/app/media_crypto/ta/media_crypto_ta.c:88
      90:	f9400fe0 	ldr	x0, [sp, #24]
      94:	f9400c00 	ldr	x0, [x0, #24]
      98:	f100001f 	cmp	x0, #0x0
      9c:	540000c0 	b.eq	b4 <free_hmac_state+0x3c>  // b.none
/home/hfut/phytium-pi-os/output/build/phytium-optee-v4.6.0/app/media_crypto/ta/media_crypto_ta.c:89
      a0:	f9400fe0 	ldr	x0, [sp, #24]
      a4:	f9400c00 	ldr	x0, [x0, #24]
      a8:	940025e3 	bl	9834 <TEE_FreeOperation>
/home/hfut/phytium-pi-os/output/build/phytium-optee-v4.6.0/app/media_crypto/ta/media_crypto_ta.c:90
      ac:	f9400fe0 	ldr	x0, [sp, #24]
      b0:	f9000c1f 	str	xzr, [x0, #24]
/home/hfut/phytium-pi-os/output/build/phytium-optee-v4.6.0/app/media_crypto/ta/media_crypto_ta.c:93
      b4:	f9400fe0 	ldr	x0, [sp, #24]
      b8:	f9401000 	ldr	x0, [x0, #32]
      bc:	f100001f 	cmp	x0, #0x0
      c0:	540000c0 	b.eq	d8 <free_hmac_state+0x60>  // b.none
/home/hfut/phytium-pi-os/output/build/phytium-optee-v4.6.0/app/media_crypto/ta/media_crypto_ta.c:94
      c4:	f9400fe0 	ldr	x0, [sp, #24]
      c8:	f9401000 	ldr	x0, [x0, #32]
      cc:	940017ed 	bl	6080 <TEE_CloseObject>
/home/hfut/phytium-pi-os/output/build/phytium-optee-v4.6.0/app/media_crypto/ta/media_crypto_ta.c:95
      d0:	f9400fe0 	ldr	x0, [sp, #24]
      d4:	f900101f 	str	xzr, [x0, #32]
/home/hfut/phytium-pi-os/output/build/phytium-optee-v4.6.0/app/media_crypto/ta/media_crypto_ta.c:98
      d8:	f9400fe0 	ldr	x0, [sp, #24]
      dc:	b900281f 	str	wzr, [x0, #40]
      e0:	14000002 	b	e8 <free_hmac_state+0x70>
/home/hfut/phytium-pi-os/output/build/phytium-optee-v4.6.0/app/media_crypto/ta/media_crypto_ta.c:86
      e4:	d503201f 	nop
/home/hfut/phytium-pi-os/output/build/phytium-optee-v4.6.0/app/media_crypto/ta/media_crypto_ta.c:99
      e8:	a8c27bfd 	ldp	x29, x30, [sp], #32
      ec:	d65f03c0 	ret

00000000000000f0 <load_key_store>:
load_key_store():
/home/hfut/phytium-pi-os/output/build/phytium-optee-v4.6.0/app/media_crypto/ta/media_crypto_ta.c:102
      f0:	a9be7bfd 	stp	x29, x30, [sp, #-32]!
      f4:	910003fd 	mov	x29, sp
      f8:	f9000fe0 	str	x0, [sp, #24]
/home/hfut/phytium-pi-os/output/build/phytium-optee-v4.6.0/app/media_crypto/ta/media_crypto_ta.c:103
      fc:	f9400fe3 	ldr	x3, [sp, #24]
     100:	d2800202 	mov	x2, #0x10                  	// #16
     104:	b0000120 	adrp	x0, 25000 <__text_end+0x3a64>
     108:	910b8001 	add	x1, x0, #0x2e0
     10c:	aa0303e0 	mov	x0, x3
     110:	94001320 	bl	4d90 <TEE_MemMove>
/home/hfut/phytium-pi-os/output/build/phytium-optee-v4.6.0/app/media_crypto/ta/media_crypto_ta.c:104
     114:	f9400fe0 	ldr	x0, [sp, #24]
     118:	91004003 	add	x3, x0, #0x10
     11c:	d2800802 	mov	x2, #0x40                  	// #64
     120:	b0000120 	adrp	x0, 25000 <__text_end+0x3a64>
     124:	910bc001 	add	x1, x0, #0x2f0
     128:	aa0303e0 	mov	x0, x3
     12c:	94001319 	bl	4d90 <TEE_MemMove>
/home/hfut/phytium-pi-os/output/build/phytium-optee-v4.6.0/app/media_crypto/ta/media_crypto_ta.c:106
     130:	52800000 	mov	w0, #0x0                   	// #0
/home/hfut/phytium-pi-os/output/build/phytium-optee-v4.6.0/app/media_crypto/ta/media_crypto_ta.c:107
     134:	a8c27bfd 	ldp	x29, x30, [sp], #32
     138:	d65f03c0 	ret

000000000000013c <make_secret_key>:
make_secret_key():
/home/hfut/phytium-pi-os/output/build/phytium-optee-v4.6.0/app/media_crypto/ta/media_crypto_ta.c:112
     13c:	a9ba7bfd 	stp	x29, x30, [sp, #-96]!
     140:	910003fd 	mov	x29, sp
     144:	f90017e0 	str	x0, [sp, #40]
     148:	b90027e1 	str	w1, [sp, #36]
     14c:	b90023e2 	str	w2, [sp, #32]
     150:	f9000fe3 	str	x3, [sp, #24]
     154:	f9000be4 	str	x4, [sp, #16]
     158:	f0000120 	adrp	x0, 27000 <_DYNAMIC>
     15c:	f9409800 	ldr	x0, [x0, #304]
     160:	f9400001 	ldr	x1, [x0]
     164:	f9002fe1 	str	x1, [sp, #88]
     168:	d2800001 	mov	x1, #0x0                   	// #0
/home/hfut/phytium-pi-os/output/build/phytium-optee-v4.6.0/app/media_crypto/ta/media_crypto_ta.c:116
     16c:	f94017e2 	ldr	x2, [sp, #40]
     170:	b94023e1 	ldr	w1, [sp, #32]
     174:	b94027e0 	ldr	w0, [sp, #36]
     178:	940017d4 	bl	60c8 <TEE_AllocateTransientObject>
     17c:	b9003fe0 	str	w0, [sp, #60]
/home/hfut/phytium-pi-os/output/build/phytium-optee-v4.6.0/app/media_crypto/ta/media_crypto_ta.c:117
     180:	b9403fe0 	ldr	w0, [sp, #60]
     184:	7100001f 	cmp	w0, #0x0
     188:	54000060 	b.eq	194 <make_secret_key+0x58>  // b.none
/home/hfut/phytium-pi-os/output/build/phytium-optee-v4.6.0/app/media_crypto/ta/media_crypto_ta.c:118
     18c:	b9403fe0 	ldr	w0, [sp, #60]
     190:	14000015 	b	1e4 <make_secret_key+0xa8>
/home/hfut/phytium-pi-os/output/build/phytium-optee-v4.6.0/app/media_crypto/ta/media_crypto_ta.c:120
     194:	910103e0 	add	x0, sp, #0x40
     198:	f9400be3 	ldr	x3, [sp, #16]
     19c:	f9400fe2 	ldr	x2, [sp, #24]
     1a0:	52b80001 	mov	w1, #0xc0000000            	// #-1073741824
     1a4:	9400195d 	bl	6718 <TEE_InitRefAttribute>
/home/hfut/phytium-pi-os/output/build/phytium-optee-v4.6.0/app/media_crypto/ta/media_crypto_ta.c:122
     1a8:	f94017e0 	ldr	x0, [sp, #40]
     1ac:	f9400000 	ldr	x0, [x0]
     1b0:	910103e1 	add	x1, sp, #0x40
     1b4:	52800022 	mov	w2, #0x1                   	// #1
     1b8:	94001870 	bl	6378 <TEE_PopulateTransientObject>
     1bc:	b9003fe0 	str	w0, [sp, #60]
/home/hfut/phytium-pi-os/output/build/phytium-optee-v4.6.0/app/media_crypto/ta/media_crypto_ta.c:123
     1c0:	b9403fe0 	ldr	w0, [sp, #60]
     1c4:	7100001f 	cmp	w0, #0x0
     1c8:	540000c0 	b.eq	1e0 <make_secret_key+0xa4>  // b.none
/home/hfut/phytium-pi-os/output/build/phytium-optee-v4.6.0/app/media_crypto/ta/media_crypto_ta.c:124
     1cc:	f94017e0 	ldr	x0, [sp, #40]
     1d0:	f9400000 	ldr	x0, [x0]
     1d4:	940017ab 	bl	6080 <TEE_CloseObject>
/home/hfut/phytium-pi-os/output/build/phytium-optee-v4.6.0/app/media_crypto/ta/media_crypto_ta.c:125
     1d8:	f94017e0 	ldr	x0, [sp, #40]
     1dc:	f900001f 	str	xzr, [x0]
/home/hfut/phytium-pi-os/output/build/phytium-optee-v4.6.0/app/media_crypto/ta/media_crypto_ta.c:128
     1e0:	b9403fe0 	ldr	w0, [sp, #60]
/home/hfut/phytium-pi-os/output/build/phytium-optee-v4.6.0/app/media_crypto/ta/media_crypto_ta.c:129 (discriminator 1)
     1e4:	2a0003e1 	mov	w1, w0
     1e8:	f0000120 	adrp	x0, 27000 <_DYNAMIC>
     1ec:	f9409800 	ldr	x0, [x0, #304]
     1f0:	f9402fe3 	ldr	x3, [sp, #88]
     1f4:	f9400002 	ldr	x2, [x0]
     1f8:	eb020063 	subs	x3, x3, x2
     1fc:	d2800002 	mov	x2, #0x0                   	// #0
     200:	54000040 	b.eq	208 <make_secret_key+0xcc>  // b.none
/home/hfut/phytium-pi-os/output/build/phytium-optee-v4.6.0/app/media_crypto/ta/media_crypto_ta.c:129
     204:	94000292 	bl	c4c <__stack_chk_fail>
     208:	2a0103e0 	mov	w0, w1
     20c:	a8c67bfd 	ldp	x29, x30, [sp], #96
     210:	d65f03c0 	ret

0000000000000214 <TA_CreateEntryPoint>:
TA_CreateEntryPoint():
/home/hfut/phytium-pi-os/output/build/phytium-optee-v4.6.0/app/media_crypto/ta/media_crypto_ta.c:133
     214:	52800000 	mov	w0, #0x0                   	// #0
/home/hfut/phytium-pi-os/output/build/phytium-optee-v4.6.0/app/media_crypto/ta/media_crypto_ta.c:134
     218:	d65f03c0 	ret

000000000000021c <TA_DestroyEntryPoint>:
TA_DestroyEntryPoint():
/home/hfut/phytium-pi-os/output/build/phytium-optee-v4.6.0/app/media_crypto/ta/media_crypto_ta.c:138
     21c:	d503201f 	nop
     220:	d65f03c0 	ret

0000000000000224 <TA_OpenSessionEntryPoint>:
TA_OpenSessionEntryPoint():
/home/hfut/phytium-pi-os/output/build/phytium-optee-v4.6.0/app/media_crypto/ta/media_crypto_ta.c:142
     224:	a9bc7bfd 	stp	x29, x30, [sp, #-64]!
     228:	910003fd 	mov	x29, sp
     22c:	b9002fe0 	str	w0, [sp, #44]
     230:	f90013e1 	str	x1, [sp, #32]
     234:	f9000fe2 	str	x2, [sp, #24]
/home/hfut/phytium-pi-os/output/build/phytium-optee-v4.6.0/app/media_crypto/ta/media_crypto_ta.c:143
     238:	f9001fff 	str	xzr, [sp, #56]
/home/hfut/phytium-pi-os/output/build/phytium-optee-v4.6.0/app/media_crypto/ta/media_crypto_ta.c:144
     23c:	b90037ff 	str	wzr, [sp, #52]
/home/hfut/phytium-pi-os/output/build/phytium-optee-v4.6.0/app/media_crypto/ta/media_crypto_ta.c:148
     240:	b9402fe1 	ldr	w1, [sp, #44]
     244:	b94037e0 	ldr	w0, [sp, #52]
     248:	6b00003f 	cmp	w1, w0
     24c:	54000060 	b.eq	258 <TA_OpenSessionEntryPoint+0x34>  // b.none
/home/hfut/phytium-pi-os/output/build/phytium-optee-v4.6.0/app/media_crypto/ta/media_crypto_ta.c:149
     250:	129fff20 	mov	w0, #0xffff0006            	// #-65530
     254:	14000016 	b	2ac <TA_OpenSessionEntryPoint+0x88>
/home/hfut/phytium-pi-os/output/build/phytium-optee-v4.6.0/app/media_crypto/ta/media_crypto_ta.c:153
     258:	52800001 	mov	w1, #0x0                   	// #0
     25c:	d2800600 	mov	x0, #0x30                  	// #48
     260:	94001383 	bl	506c <TEE_Malloc>
     264:	f9001fe0 	str	x0, [sp, #56]
/home/hfut/phytium-pi-os/output/build/phytium-optee-v4.6.0/app/media_crypto/ta/media_crypto_ta.c:154
     268:	f9401fe0 	ldr	x0, [sp, #56]
     26c:	f100001f 	cmp	x0, #0x0
     270:	54000061 	b.ne	27c <TA_OpenSessionEntryPoint+0x58>  // b.any
/home/hfut/phytium-pi-os/output/build/phytium-optee-v4.6.0/app/media_crypto/ta/media_crypto_ta.c:155
     274:	129ffe60 	mov	w0, #0xffff000c            	// #-65524
     278:	1400000d 	b	2ac <TA_OpenSessionEntryPoint+0x88>
/home/hfut/phytium-pi-os/output/build/phytium-optee-v4.6.0/app/media_crypto/ta/media_crypto_ta.c:157
     27c:	f9401fe0 	ldr	x0, [sp, #56]
     280:	f900001f 	str	xzr, [x0]
/home/hfut/phytium-pi-os/output/build/phytium-optee-v4.6.0/app/media_crypto/ta/media_crypto_ta.c:158
     284:	f9401fe0 	ldr	x0, [sp, #56]
     288:	f900041f 	str	xzr, [x0, #8]
/home/hfut/phytium-pi-os/output/build/phytium-optee-v4.6.0/app/media_crypto/ta/media_crypto_ta.c:159
     28c:	f9401fe0 	ldr	x0, [sp, #56]
     290:	f9000c1f 	str	xzr, [x0, #24]
/home/hfut/phytium-pi-os/output/build/phytium-optee-v4.6.0/app/media_crypto/ta/media_crypto_ta.c:160
     294:	f9401fe0 	ldr	x0, [sp, #56]
     298:	f900101f 	str	xzr, [x0, #32]
/home/hfut/phytium-pi-os/output/build/phytium-optee-v4.6.0/app/media_crypto/ta/media_crypto_ta.c:161
     29c:	f9400fe0 	ldr	x0, [sp, #24]
     2a0:	f9401fe1 	ldr	x1, [sp, #56]
     2a4:	f9000001 	str	x1, [x0]
/home/hfut/phytium-pi-os/output/build/phytium-optee-v4.6.0/app/media_crypto/ta/media_crypto_ta.c:164
     2a8:	52800000 	mov	w0, #0x0                   	// #0
/home/hfut/phytium-pi-os/output/build/phytium-optee-v4.6.0/app/media_crypto/ta/media_crypto_ta.c:165
     2ac:	a8c47bfd 	ldp	x29, x30, [sp], #64
     2b0:	d65f03c0 	ret

00000000000002b4 <TA_CloseSessionEntryPoint>:
TA_CloseSessionEntryPoint():
/home/hfut/phytium-pi-os/output/build/phytium-optee-v4.6.0/app/media_crypto/ta/media_crypto_ta.c:168
     2b4:	a9bd7bfd 	stp	x29, x30, [sp, #-48]!
     2b8:	910003fd 	mov	x29, sp
     2bc:	f9000fe0 	str	x0, [sp, #24]
/home/hfut/phytium-pi-os/output/build/phytium-optee-v4.6.0/app/media_crypto/ta/media_crypto_ta.c:169
     2c0:	f9400fe0 	ldr	x0, [sp, #24]
     2c4:	f90017e0 	str	x0, [sp, #40]
/home/hfut/phytium-pi-os/output/build/phytium-optee-v4.6.0/app/media_crypto/ta/media_crypto_ta.c:171
     2c8:	f94017e0 	ldr	x0, [sp, #40]
     2cc:	97ffff4d 	bl	0 <free_cipher_state>
/home/hfut/phytium-pi-os/output/build/phytium-optee-v4.6.0/app/media_crypto/ta/media_crypto_ta.c:172
     2d0:	f94017e0 	ldr	x0, [sp, #40]
     2d4:	97ffff69 	bl	78 <free_hmac_state>
/home/hfut/phytium-pi-os/output/build/phytium-optee-v4.6.0/app/media_crypto/ta/media_crypto_ta.c:173
     2d8:	f94017e0 	ldr	x0, [sp, #40]
     2dc:	94001430 	bl	539c <TEE_Free>
/home/hfut/phytium-pi-os/output/build/phytium-optee-v4.6.0/app/media_crypto/ta/media_crypto_ta.c:175
     2e0:	d503201f 	nop
     2e4:	a8c37bfd 	ldp	x29, x30, [sp], #48
     2e8:	d65f03c0 	ret

00000000000002ec <inc_value>:
inc_value():
/home/hfut/phytium-pi-os/output/build/phytium-optee-v4.6.0/app/media_crypto/ta/media_crypto_ta.c:178
     2ec:	d10083ff 	sub	sp, sp, #0x20
     2f0:	b9000fe0 	str	w0, [sp, #12]
     2f4:	f90003e1 	str	x1, [sp]
/home/hfut/phytium-pi-os/output/build/phytium-optee-v4.6.0/app/media_crypto/ta/media_crypto_ta.c:179
     2f8:	52800060 	mov	w0, #0x3                   	// #3
     2fc:	b9001fe0 	str	w0, [sp, #28]
/home/hfut/phytium-pi-os/output/build/phytium-optee-v4.6.0/app/media_crypto/ta/media_crypto_ta.c:184
     300:	b9400fe1 	ldr	w1, [sp, #12]
     304:	b9401fe0 	ldr	w0, [sp, #28]
     308:	6b00003f 	cmp	w1, w0
     30c:	54000060 	b.eq	318 <inc_value+0x2c>  // b.none
/home/hfut/phytium-pi-os/output/build/phytium-optee-v4.6.0/app/media_crypto/ta/media_crypto_ta.c:185
     310:	129fff20 	mov	w0, #0xffff0006            	// #-65530
     314:	14000007 	b	330 <inc_value+0x44>
/home/hfut/phytium-pi-os/output/build/phytium-optee-v4.6.0/app/media_crypto/ta/media_crypto_ta.c:187
     318:	f94003e0 	ldr	x0, [sp]
     31c:	b9400000 	ldr	w0, [x0]
     320:	11000401 	add	w1, w0, #0x1
     324:	f94003e0 	ldr	x0, [sp]
     328:	b9000001 	str	w1, [x0]
/home/hfut/phytium-pi-os/output/build/phytium-optee-v4.6.0/app/media_crypto/ta/media_crypto_ta.c:188
     32c:	52800000 	mov	w0, #0x0                   	// #0
/home/hfut/phytium-pi-os/output/build/phytium-optee-v4.6.0/app/media_crypto/ta/media_crypto_ta.c:189
     330:	910083ff 	add	sp, sp, #0x20
     334:	d65f03c0 	ret

0000000000000338 <cipher_init>:
cipher_init():
/home/hfut/phytium-pi-os/output/build/phytium-optee-v4.6.0/app/media_crypto/ta/media_crypto_ta.c:193
     338:	a9b67bfd 	stp	x29, x30, [sp, #-160]!
     33c:	910003fd 	mov	x29, sp
     340:	f90017e0 	str	x0, [sp, #40]
     344:	b90027e1 	str	w1, [sp, #36]
     348:	b90023e2 	str	w2, [sp, #32]
     34c:	f9000fe3 	str	x3, [sp, #24]
     350:	f0000120 	adrp	x0, 27000 <_DYNAMIC>
     354:	f9409800 	ldr	x0, [x0, #304]
     358:	f9400001 	ldr	x1, [x0]
     35c:	f9004fe1 	str	x1, [sp, #152]
     360:	d2800001 	mov	x1, #0x0                   	// #0
/home/hfut/phytium-pi-os/output/build/phytium-optee-v4.6.0/app/media_crypto/ta/media_crypto_ta.c:196
     364:	f90047ff 	str	xzr, [sp, #136]
     368:	f9004bff 	str	xzr, [sp, #144]
/home/hfut/phytium-pi-os/output/build/phytium-optee-v4.6.0/app/media_crypto/ta/media_crypto_ta.c:199
     36c:	f94017e0 	ldr	x0, [sp, #40]
     370:	f100001f 	cmp	x0, #0x0
     374:	54000061 	b.ne	380 <cipher_init+0x48>  // b.any
/home/hfut/phytium-pi-os/output/build/phytium-optee-v4.6.0/app/media_crypto/ta/media_crypto_ta.c:200
     378:	129fff00 	mov	w0, #0xffff0007            	// #-65529
     37c:	14000064 	b	50c <cipher_init+0x1d4>
/home/hfut/phytium-pi-os/output/build/phytium-optee-v4.6.0/app/media_crypto/ta/media_crypto_ta.c:202
     380:	b94027e0 	ldr	w0, [sp, #36]
     384:	7100001f 	cmp	w0, #0x0
     388:	54000081 	b.ne	398 <cipher_init+0x60>  // b.any
/home/hfut/phytium-pi-os/output/build/phytium-optee-v4.6.0/app/media_crypto/ta/media_crypto_ta.c:203
     38c:	528000c0 	mov	w0, #0x6                   	// #6
     390:	b90037e0 	str	w0, [sp, #52]
     394:	14000003 	b	3a0 <cipher_init+0x68>
/home/hfut/phytium-pi-os/output/build/phytium-optee-v4.6.0/app/media_crypto/ta/media_crypto_ta.c:208
     398:	528000a0 	mov	w0, #0x5                   	// #5
     39c:	b90037e0 	str	w0, [sp, #52]
/home/hfut/phytium-pi-os/output/build/phytium-optee-v4.6.0/app/media_crypto/ta/media_crypto_ta.c:214
     3a0:	b94023e1 	ldr	w1, [sp, #32]
     3a4:	b94037e0 	ldr	w0, [sp, #52]
     3a8:	6b00003f 	cmp	w1, w0
     3ac:	54000060 	b.eq	3b8 <cipher_init+0x80>  // b.none
/home/hfut/phytium-pi-os/output/build/phytium-optee-v4.6.0/app/media_crypto/ta/media_crypto_ta.c:215
     3b0:	129fff20 	mov	w0, #0xffff0006            	// #-65530
     3b4:	14000056 	b	50c <cipher_init+0x1d4>
/home/hfut/phytium-pi-os/output/build/phytium-optee-v4.6.0/app/media_crypto/ta/media_crypto_ta.c:217
     3b8:	f9400fe0 	ldr	x0, [sp, #24]
     3bc:	f9400400 	ldr	x0, [x0, #8]
     3c0:	f100401f 	cmp	x0, #0x10
     3c4:	54000060 	b.eq	3d0 <cipher_init+0x98>  // b.none
/home/hfut/phytium-pi-os/output/build/phytium-optee-v4.6.0/app/media_crypto/ta/media_crypto_ta.c:218
     3c8:	129fff20 	mov	w0, #0xffff0006            	// #-65530
     3cc:	14000050 	b	50c <cipher_init+0x1d4>
/home/hfut/phytium-pi-os/output/build/phytium-optee-v4.6.0/app/media_crypto/ta/media_crypto_ta.c:220
     3d0:	f94017e0 	ldr	x0, [sp, #40]
     3d4:	97ffff0b 	bl	0 <free_cipher_state>
/home/hfut/phytium-pi-os/output/build/phytium-optee-v4.6.0/app/media_crypto/ta/media_crypto_ta.c:222
     3d8:	9100e3e0 	add	x0, sp, #0x38
     3dc:	97ffff45 	bl	f0 <load_key_store>
     3e0:	b90033e0 	str	w0, [sp, #48]
/home/hfut/phytium-pi-os/output/build/phytium-optee-v4.6.0/app/media_crypto/ta/media_crypto_ta.c:223
     3e4:	b94033e0 	ldr	w0, [sp, #48]
     3e8:	7100001f 	cmp	w0, #0x0
     3ec:	540007c1 	b.ne	4e4 <cipher_init+0x1ac>  // b.any
/home/hfut/phytium-pi-os/output/build/phytium-optee-v4.6.0/app/media_crypto/ta/media_crypto_ta.c:226
     3f0:	f94017e0 	ldr	x0, [sp, #40]
     3f4:	91002000 	add	x0, x0, #0x8
     3f8:	9100e3e1 	add	x1, sp, #0x38
     3fc:	d2800204 	mov	x4, #0x10                  	// #16
     400:	aa0103e3 	mov	x3, x1
     404:	52801002 	mov	w2, #0x80                  	// #128
     408:	52800281 	mov	w1, #0x14                  	// #20
     40c:	72b40001 	movk	w1, #0xa000, lsl #16
     410:	97ffff4b 	bl	13c <make_secret_key>
     414:	b90033e0 	str	w0, [sp, #48]
/home/hfut/phytium-pi-os/output/build/phytium-optee-v4.6.0/app/media_crypto/ta/media_crypto_ta.c:228
     418:	b94033e0 	ldr	w0, [sp, #48]
     41c:	7100001f 	cmp	w0, #0x0
     420:	54000661 	b.ne	4ec <cipher_init+0x1b4>  // b.any
/home/hfut/phytium-pi-os/output/build/phytium-optee-v4.6.0/app/media_crypto/ta/media_crypto_ta.c:231
     424:	f94017e0 	ldr	x0, [sp, #40]
     428:	52801003 	mov	w3, #0x80                  	// #128
     42c:	b94027e2 	ldr	w2, [sp, #36]
     430:	52804281 	mov	w1, #0x214                 	// #532
     434:	72a20001 	movk	w1, #0x1000, lsl #16
     438:	94001fed 	bl	83ec <TEE_AllocateOperation>
     43c:	b90033e0 	str	w0, [sp, #48]
/home/hfut/phytium-pi-os/output/build/phytium-optee-v4.6.0/app/media_crypto/ta/media_crypto_ta.c:233
     440:	b94033e0 	ldr	w0, [sp, #48]
     444:	7100001f 	cmp	w0, #0x0
     448:	54000561 	b.ne	4f4 <cipher_init+0x1bc>  // b.any
/home/hfut/phytium-pi-os/output/build/phytium-optee-v4.6.0/app/media_crypto/ta/media_crypto_ta.c:236
     44c:	f94017e0 	ldr	x0, [sp, #40]
     450:	f9400002 	ldr	x2, [x0]
     454:	f94017e0 	ldr	x0, [sp, #40]
     458:	f9400400 	ldr	x0, [x0, #8]
     45c:	aa0003e1 	mov	x1, x0
     460:	aa0203e0 	mov	x0, x2
     464:	94002650 	bl	9da4 <TEE_SetOperationKey>
     468:	b90033e0 	str	w0, [sp, #48]
/home/hfut/phytium-pi-os/output/build/phytium-optee-v4.6.0/app/media_crypto/ta/media_crypto_ta.c:237
     46c:	b94033e0 	ldr	w0, [sp, #48]
     470:	7100001f 	cmp	w0, #0x0
     474:	54000441 	b.ne	4fc <cipher_init+0x1c4>  // b.any
/home/hfut/phytium-pi-os/output/build/phytium-optee-v4.6.0/app/media_crypto/ta/media_crypto_ta.c:240
     478:	b94027e0 	ldr	w0, [sp, #36]
     47c:	7100001f 	cmp	w0, #0x0
     480:	54000141 	b.ne	4a8 <cipher_init+0x170>  // b.any
/home/hfut/phytium-pi-os/output/build/phytium-optee-v4.6.0/app/media_crypto/ta/media_crypto_ta.c:241
     484:	910223e0 	add	x0, sp, #0x88
     488:	d2800201 	mov	x1, #0x10                  	// #16
     48c:	940038f0 	bl	e84c <TEE_GenerateRandom>
/home/hfut/phytium-pi-os/output/build/phytium-optee-v4.6.0/app/media_crypto/ta/media_crypto_ta.c:242
     490:	f9400fe0 	ldr	x0, [sp, #24]
     494:	f9400000 	ldr	x0, [x0]
     498:	910223e1 	add	x1, sp, #0x88
     49c:	d2800202 	mov	x2, #0x10                  	// #16
     4a0:	9400123c 	bl	4d90 <TEE_MemMove>
     4a4:	14000006 	b	4bc <cipher_init+0x184>
/home/hfut/phytium-pi-os/output/build/phytium-optee-v4.6.0/app/media_crypto/ta/media_crypto_ta.c:244
     4a8:	f9400fe0 	ldr	x0, [sp, #24]
     4ac:	f9400001 	ldr	x1, [x0]
     4b0:	910223e0 	add	x0, sp, #0x88
     4b4:	d2800202 	mov	x2, #0x10                  	// #16
     4b8:	94001236 	bl	4d90 <TEE_MemMove>
/home/hfut/phytium-pi-os/output/build/phytium-optee-v4.6.0/app/media_crypto/ta/media_crypto_ta.c:247
     4bc:	f94017e0 	ldr	x0, [sp, #40]
     4c0:	f9400000 	ldr	x0, [x0]
     4c4:	910223e1 	add	x1, sp, #0x88
     4c8:	d2800202 	mov	x2, #0x10                  	// #16
     4cc:	94002a0f 	bl	ad08 <TEE_CipherInit>
/home/hfut/phytium-pi-os/output/build/phytium-optee-v4.6.0/app/media_crypto/ta/media_crypto_ta.c:248
     4d0:	f94017e0 	ldr	x0, [sp, #40]
     4d4:	52800021 	mov	w1, #0x1                   	// #1
     4d8:	b9001001 	str	w1, [x0, #16]
/home/hfut/phytium-pi-os/output/build/phytium-optee-v4.6.0/app/media_crypto/ta/media_crypto_ta.c:249
     4dc:	52800000 	mov	w0, #0x0                   	// #0
     4e0:	1400000b 	b	50c <cipher_init+0x1d4>
/home/hfut/phytium-pi-os/output/build/phytium-optee-v4.6.0/app/media_crypto/ta/media_crypto_ta.c:224
     4e4:	d503201f 	nop
     4e8:	14000006 	b	500 <cipher_init+0x1c8>
/home/hfut/phytium-pi-os/output/build/phytium-optee-v4.6.0/app/media_crypto/ta/media_crypto_ta.c:229
     4ec:	d503201f 	nop
     4f0:	14000004 	b	500 <cipher_init+0x1c8>
/home/hfut/phytium-pi-os/output/build/phytium-optee-v4.6.0/app/media_crypto/ta/media_crypto_ta.c:234
     4f4:	d503201f 	nop
     4f8:	14000002 	b	500 <cipher_init+0x1c8>
/home/hfut/phytium-pi-os/output/build/phytium-optee-v4.6.0/app/media_crypto/ta/media_crypto_ta.c:238
     4fc:	d503201f 	nop
/home/hfut/phytium-pi-os/output/build/phytium-optee-v4.6.0/app/media_crypto/ta/media_crypto_ta.c:252
     500:	f94017e0 	ldr	x0, [sp, #40]
     504:	97fffebf 	bl	0 <free_cipher_state>
/home/hfut/phytium-pi-os/output/build/phytium-optee-v4.6.0/app/media_crypto/ta/media_crypto_ta.c:253
     508:	b94033e0 	ldr	w0, [sp, #48]
/home/hfut/phytium-pi-os/output/build/phytium-optee-v4.6.0/app/media_crypto/ta/media_crypto_ta.c:254 (discriminator 1)
     50c:	2a0003e1 	mov	w1, w0
     510:	f0000120 	adrp	x0, 27000 <_DYNAMIC>
     514:	f9409800 	ldr	x0, [x0, #304]
     518:	f9404fe3 	ldr	x3, [sp, #152]
     51c:	f9400002 	ldr	x2, [x0]
     520:	eb020063 	subs	x3, x3, x2
     524:	d2800002 	mov	x2, #0x0                   	// #0
     528:	54000040 	b.eq	530 <cipher_init+0x1f8>  // b.none
/home/hfut/phytium-pi-os/output/build/phytium-optee-v4.6.0/app/media_crypto/ta/media_crypto_ta.c:254
     52c:	940001c8 	bl	c4c <__stack_chk_fail>
     530:	2a0103e0 	mov	w0, w1
     534:	a8ca7bfd 	ldp	x29, x30, [sp], #160
     538:	d65f03c0 	ret

000000000000053c <cipher_update>:
cipher_update():
/home/hfut/phytium-pi-os/output/build/phytium-optee-v4.6.0/app/media_crypto/ta/media_crypto_ta.c:258
     53c:	a9bb7bfd 	stp	x29, x30, [sp, #-80]!
     540:	910003fd 	mov	x29, sp
     544:	f90017e0 	str	x0, [sp, #40]
     548:	b90027e1 	str	w1, [sp, #36]
     54c:	f9000fe2 	str	x2, [sp, #24]
     550:	f0000120 	adrp	x0, 27000 <_DYNAMIC>
     554:	f9409800 	ldr	x0, [x0, #304]
     558:	f9400001 	ldr	x1, [x0]
     55c:	f90027e1 	str	x1, [sp, #72]
     560:	d2800001 	mov	x1, #0x0                   	// #0
/home/hfut/phytium-pi-os/output/build/phytium-optee-v4.6.0/app/media_crypto/ta/media_crypto_ta.c:261
     564:	52800ca0 	mov	w0, #0x65                  	// #101
     568:	b9003be0 	str	w0, [sp, #56]
/home/hfut/phytium-pi-os/output/build/phytium-optee-v4.6.0/app/media_crypto/ta/media_crypto_ta.c:266
     56c:	f94017e0 	ldr	x0, [sp, #40]
     570:	f100001f 	cmp	x0, #0x0
     574:	54000120 	b.eq	598 <cipher_update+0x5c>  // b.none
/home/hfut/phytium-pi-os/output/build/phytium-optee-v4.6.0/app/media_crypto/ta/media_crypto_ta.c:266 (discriminator 1)
     578:	f94017e0 	ldr	x0, [sp, #40]
     57c:	b9401000 	ldr	w0, [x0, #16]
     580:	7100001f 	cmp	w0, #0x0
     584:	540000a0 	b.eq	598 <cipher_update+0x5c>  // b.none
/home/hfut/phytium-pi-os/output/build/phytium-optee-v4.6.0/app/media_crypto/ta/media_crypto_ta.c:266 (discriminator 2)
     588:	f94017e0 	ldr	x0, [sp, #40]
     58c:	f9400000 	ldr	x0, [x0]
     590:	f100001f 	cmp	x0, #0x0
     594:	54000061 	b.ne	5a0 <cipher_update+0x64>  // b.any
/home/hfut/phytium-pi-os/output/build/phytium-optee-v4.6.0/app/media_crypto/ta/media_crypto_ta.c:267
     598:	129fff00 	mov	w0, #0xffff0007            	// #-65529
     59c:	1400002b 	b	648 <cipher_update+0x10c>
/home/hfut/phytium-pi-os/output/build/phytium-optee-v4.6.0/app/media_crypto/ta/media_crypto_ta.c:269
     5a0:	b94027e1 	ldr	w1, [sp, #36]
     5a4:	b9403be0 	ldr	w0, [sp, #56]
     5a8:	6b00003f 	cmp	w1, w0
     5ac:	54000060 	b.eq	5b8 <cipher_update+0x7c>  // b.none
/home/hfut/phytium-pi-os/output/build/phytium-optee-v4.6.0/app/media_crypto/ta/media_crypto_ta.c:270
     5b0:	129fff20 	mov	w0, #0xffff0006            	// #-65530
     5b4:	14000025 	b	648 <cipher_update+0x10c>
/home/hfut/phytium-pi-os/output/build/phytium-optee-v4.6.0/app/media_crypto/ta/media_crypto_ta.c:272
     5b8:	f9400fe0 	ldr	x0, [sp, #24]
     5bc:	91004000 	add	x0, x0, #0x10
     5c0:	f9400401 	ldr	x1, [x0, #8]
     5c4:	f9400fe0 	ldr	x0, [sp, #24]
     5c8:	f9400400 	ldr	x0, [x0, #8]
     5cc:	eb00003f 	cmp	x1, x0
     5d0:	54000062 	b.cs	5dc <cipher_update+0xa0>  // b.hs, b.nlast
/home/hfut/phytium-pi-os/output/build/phytium-optee-v4.6.0/app/media_crypto/ta/media_crypto_ta.c:273
     5d4:	129ffde0 	mov	w0, #0xffff0010            	// #-65520
     5d8:	1400001c 	b	648 <cipher_update+0x10c>
/home/hfut/phytium-pi-os/output/build/phytium-optee-v4.6.0/app/media_crypto/ta/media_crypto_ta.c:275
     5dc:	f9400fe0 	ldr	x0, [sp, #24]
     5e0:	91004000 	add	x0, x0, #0x10
     5e4:	f9400400 	ldr	x0, [x0, #8]
     5e8:	f90023e0 	str	x0, [sp, #64]
/home/hfut/phytium-pi-os/output/build/phytium-optee-v4.6.0/app/media_crypto/ta/media_crypto_ta.c:276
     5ec:	f94017e0 	ldr	x0, [sp, #40]
     5f0:	f9400005 	ldr	x5, [x0]
/home/hfut/phytium-pi-os/output/build/phytium-optee-v4.6.0/app/media_crypto/ta/media_crypto_ta.c:277
     5f4:	f9400fe0 	ldr	x0, [sp, #24]
     5f8:	f9400001 	ldr	x1, [x0]
/home/hfut/phytium-pi-os/output/build/phytium-optee-v4.6.0/app/media_crypto/ta/media_crypto_ta.c:276
     5fc:	f9400fe0 	ldr	x0, [sp, #24]
     600:	f9400402 	ldr	x2, [x0, #8]
/home/hfut/phytium-pi-os/output/build/phytium-optee-v4.6.0/app/media_crypto/ta/media_crypto_ta.c:278
     604:	f9400fe0 	ldr	x0, [sp, #24]
     608:	91004000 	add	x0, x0, #0x10
/home/hfut/phytium-pi-os/output/build/phytium-optee-v4.6.0/app/media_crypto/ta/media_crypto_ta.c:276
     60c:	f9400000 	ldr	x0, [x0]
     610:	910103e3 	add	x3, sp, #0x40
     614:	aa0303e4 	mov	x4, x3
     618:	aa0003e3 	mov	x3, x0
     61c:	aa0503e0 	mov	x0, x5
     620:	94002b6e 	bl	b3d8 <TEE_CipherUpdate>
     624:	b9003fe0 	str	w0, [sp, #60]
/home/hfut/phytium-pi-os/output/build/phytium-optee-v4.6.0/app/media_crypto/ta/media_crypto_ta.c:279
     628:	b9403fe0 	ldr	w0, [sp, #60]
     62c:	7100001f 	cmp	w0, #0x0
     630:	540000a1 	b.ne	644 <cipher_update+0x108>  // b.any
/home/hfut/phytium-pi-os/output/build/phytium-optee-v4.6.0/app/media_crypto/ta/media_crypto_ta.c:280
     634:	f9400fe0 	ldr	x0, [sp, #24]
     638:	91004000 	add	x0, x0, #0x10
     63c:	f94023e1 	ldr	x1, [sp, #64]
     640:	f9000401 	str	x1, [x0, #8]
/home/hfut/phytium-pi-os/output/build/phytium-optee-v4.6.0/app/media_crypto/ta/media_crypto_ta.c:282
     644:	b9403fe0 	ldr	w0, [sp, #60]
/home/hfut/phytium-pi-os/output/build/phytium-optee-v4.6.0/app/media_crypto/ta/media_crypto_ta.c:283 (discriminator 1)
     648:	2a0003e1 	mov	w1, w0
     64c:	f0000120 	adrp	x0, 27000 <_DYNAMIC>
     650:	f9409800 	ldr	x0, [x0, #304]
     654:	f94027e3 	ldr	x3, [sp, #72]
     658:	f9400002 	ldr	x2, [x0]
     65c:	eb020063 	subs	x3, x3, x2
     660:	d2800002 	mov	x2, #0x0                   	// #0
     664:	54000040 	b.eq	66c <cipher_update+0x130>  // b.none
/home/hfut/phytium-pi-os/output/build/phytium-optee-v4.6.0/app/media_crypto/ta/media_crypto_ta.c:283
     668:	94000179 	bl	c4c <__stack_chk_fail>
     66c:	2a0103e0 	mov	w0, w1
     670:	a8c57bfd 	ldp	x29, x30, [sp], #80
     674:	d65f03c0 	ret

0000000000000678 <cipher_finish>:
cipher_finish():
/home/hfut/phytium-pi-os/output/build/phytium-optee-v4.6.0/app/media_crypto/ta/media_crypto_ta.c:287
     678:	a9bc7bfd 	stp	x29, x30, [sp, #-64]!
     67c:	910003fd 	mov	x29, sp
     680:	f90017e0 	str	x0, [sp, #40]
     684:	b90027e1 	str	w1, [sp, #36]
     688:	f9000fe2 	str	x2, [sp, #24]
/home/hfut/phytium-pi-os/output/build/phytium-optee-v4.6.0/app/media_crypto/ta/media_crypto_ta.c:288
     68c:	b9003fff 	str	wzr, [sp, #60]
/home/hfut/phytium-pi-os/output/build/phytium-optee-v4.6.0/app/media_crypto/ta/media_crypto_ta.c:295
     690:	b94027e1 	ldr	w1, [sp, #36]
     694:	b9403fe0 	ldr	w0, [sp, #60]
     698:	6b00003f 	cmp	w1, w0
     69c:	54000060 	b.eq	6a8 <cipher_finish+0x30>  // b.none
/home/hfut/phytium-pi-os/output/build/phytium-optee-v4.6.0/app/media_crypto/ta/media_crypto_ta.c:296
     6a0:	129fff20 	mov	w0, #0xffff0006            	// #-65530
     6a4:	14000004 	b	6b4 <cipher_finish+0x3c>
/home/hfut/phytium-pi-os/output/build/phytium-optee-v4.6.0/app/media_crypto/ta/media_crypto_ta.c:298
     6a8:	f94017e0 	ldr	x0, [sp, #40]
     6ac:	97fffe55 	bl	0 <free_cipher_state>
/home/hfut/phytium-pi-os/output/build/phytium-optee-v4.6.0/app/media_crypto/ta/media_crypto_ta.c:299
     6b0:	52800000 	mov	w0, #0x0                   	// #0
/home/hfut/phytium-pi-os/output/build/phytium-optee-v4.6.0/app/media_crypto/ta/media_crypto_ta.c:300
     6b4:	a8c47bfd 	ldp	x29, x30, [sp], #64
     6b8:	d65f03c0 	ret

00000000000006bc <hmac_init>:
hmac_init():
/home/hfut/phytium-pi-os/output/build/phytium-optee-v4.6.0/app/media_crypto/ta/media_crypto_ta.c:304
     6bc:	a9b77bfd 	stp	x29, x30, [sp, #-144]!
     6c0:	910003fd 	mov	x29, sp
     6c4:	f90017e0 	str	x0, [sp, #40]
     6c8:	b90027e1 	str	w1, [sp, #36]
     6cc:	f9000fe2 	str	x2, [sp, #24]
     6d0:	f0000120 	adrp	x0, 27000 <_DYNAMIC>
     6d4:	f9409800 	ldr	x0, [x0, #304]
     6d8:	f9400001 	ldr	x1, [x0]
     6dc:	f90047e1 	str	x1, [sp, #136]
     6e0:	d2800001 	mov	x1, #0x0                   	// #0
/home/hfut/phytium-pi-os/output/build/phytium-optee-v4.6.0/app/media_crypto/ta/media_crypto_ta.c:307
     6e4:	b90037ff 	str	wzr, [sp, #52]
/home/hfut/phytium-pi-os/output/build/phytium-optee-v4.6.0/app/media_crypto/ta/media_crypto_ta.c:314
     6e8:	f94017e0 	ldr	x0, [sp, #40]
     6ec:	f100001f 	cmp	x0, #0x0
     6f0:	54000061 	b.ne	6fc <hmac_init+0x40>  // b.any
/home/hfut/phytium-pi-os/output/build/phytium-optee-v4.6.0/app/media_crypto/ta/media_crypto_ta.c:315
     6f4:	129fff00 	mov	w0, #0xffff0007            	// #-65529
     6f8:	14000048 	b	818 <hmac_init+0x15c>
/home/hfut/phytium-pi-os/output/build/phytium-optee-v4.6.0/app/media_crypto/ta/media_crypto_ta.c:317
     6fc:	b94027e1 	ldr	w1, [sp, #36]
     700:	b94037e0 	ldr	w0, [sp, #52]
     704:	6b00003f 	cmp	w1, w0
     708:	54000060 	b.eq	714 <hmac_init+0x58>  // b.none
/home/hfut/phytium-pi-os/output/build/phytium-optee-v4.6.0/app/media_crypto/ta/media_crypto_ta.c:318
     70c:	129fff20 	mov	w0, #0xffff0006            	// #-65530
     710:	14000042 	b	818 <hmac_init+0x15c>
/home/hfut/phytium-pi-os/output/build/phytium-optee-v4.6.0/app/media_crypto/ta/media_crypto_ta.c:320
     714:	f94017e0 	ldr	x0, [sp, #40]
     718:	97fffe58 	bl	78 <free_hmac_state>
/home/hfut/phytium-pi-os/output/build/phytium-optee-v4.6.0/app/media_crypto/ta/media_crypto_ta.c:322
     71c:	9100e3e0 	add	x0, sp, #0x38
     720:	97fffe74 	bl	f0 <load_key_store>
     724:	b90033e0 	str	w0, [sp, #48]
/home/hfut/phytium-pi-os/output/build/phytium-optee-v4.6.0/app/media_crypto/ta/media_crypto_ta.c:323
     728:	b94033e0 	ldr	w0, [sp, #48]
     72c:	7100001f 	cmp	w0, #0x0
     730:	54000601 	b.ne	7f0 <hmac_init+0x134>  // b.any
/home/hfut/phytium-pi-os/output/build/phytium-optee-v4.6.0/app/media_crypto/ta/media_crypto_ta.c:326
     734:	f94017e0 	ldr	x0, [sp, #40]
     738:	91008005 	add	x5, x0, #0x20
     73c:	9100e3e0 	add	x0, sp, #0x38
     740:	91004000 	add	x0, x0, #0x10
     744:	d2800804 	mov	x4, #0x40                  	// #64
     748:	aa0003e3 	mov	x3, x0
     74c:	52804002 	mov	w2, #0x200                 	// #512
     750:	528000e1 	mov	w1, #0x7                   	// #7
     754:	72b40001 	movk	w1, #0xa000, lsl #16
     758:	aa0503e0 	mov	x0, x5
     75c:	97fffe78 	bl	13c <make_secret_key>
     760:	b90033e0 	str	w0, [sp, #48]
/home/hfut/phytium-pi-os/output/build/phytium-optee-v4.6.0/app/media_crypto/ta/media_crypto_ta.c:328
     764:	b94033e0 	ldr	w0, [sp, #48]
     768:	7100001f 	cmp	w0, #0x0
     76c:	54000461 	b.ne	7f8 <hmac_init+0x13c>  // b.any
/home/hfut/phytium-pi-os/output/build/phytium-optee-v4.6.0/app/media_crypto/ta/media_crypto_ta.c:331
     770:	f94017e0 	ldr	x0, [sp, #40]
     774:	91006000 	add	x0, x0, #0x18
     778:	52804003 	mov	w3, #0x200                 	// #512
     77c:	52800082 	mov	w2, #0x4                   	// #4
     780:	528000e1 	mov	w1, #0x7                   	// #7
     784:	72a60001 	movk	w1, #0x3000, lsl #16
     788:	94001f19 	bl	83ec <TEE_AllocateOperation>
     78c:	b90033e0 	str	w0, [sp, #48]
/home/hfut/phytium-pi-os/output/build/phytium-optee-v4.6.0/app/media_crypto/ta/media_crypto_ta.c:333
     790:	b94033e0 	ldr	w0, [sp, #48]
     794:	7100001f 	cmp	w0, #0x0
     798:	54000341 	b.ne	800 <hmac_init+0x144>  // b.any
/home/hfut/phytium-pi-os/output/build/phytium-optee-v4.6.0/app/media_crypto/ta/media_crypto_ta.c:336
     79c:	f94017e0 	ldr	x0, [sp, #40]
     7a0:	f9400c02 	ldr	x2, [x0, #24]
     7a4:	f94017e0 	ldr	x0, [sp, #40]
     7a8:	f9401000 	ldr	x0, [x0, #32]
     7ac:	aa0003e1 	mov	x1, x0
     7b0:	aa0203e0 	mov	x0, x2
     7b4:	9400257c 	bl	9da4 <TEE_SetOperationKey>
     7b8:	b90033e0 	str	w0, [sp, #48]
/home/hfut/phytium-pi-os/output/build/phytium-optee-v4.6.0/app/media_crypto/ta/media_crypto_ta.c:337
     7bc:	b94033e0 	ldr	w0, [sp, #48]
     7c0:	7100001f 	cmp	w0, #0x0
     7c4:	54000221 	b.ne	808 <hmac_init+0x14c>  // b.any
/home/hfut/phytium-pi-os/output/build/phytium-optee-v4.6.0/app/media_crypto/ta/media_crypto_ta.c:340
     7c8:	f94017e0 	ldr	x0, [sp, #40]
     7cc:	f9400c00 	ldr	x0, [x0, #24]
     7d0:	d2800002 	mov	x2, #0x0                   	// #0
     7d4:	d2800001 	mov	x1, #0x0                   	// #0
     7d8:	94002d0a 	bl	bc00 <TEE_MACInit>
/home/hfut/phytium-pi-os/output/build/phytium-optee-v4.6.0/app/media_crypto/ta/media_crypto_ta.c:341
     7dc:	f94017e0 	ldr	x0, [sp, #40]
     7e0:	52800021 	mov	w1, #0x1                   	// #1
     7e4:	b9002801 	str	w1, [x0, #40]
/home/hfut/phytium-pi-os/output/build/phytium-optee-v4.6.0/app/media_crypto/ta/media_crypto_ta.c:342
     7e8:	52800000 	mov	w0, #0x0                   	// #0
     7ec:	1400000b 	b	818 <hmac_init+0x15c>
/home/hfut/phytium-pi-os/output/build/phytium-optee-v4.6.0/app/media_crypto/ta/media_crypto_ta.c:324
     7f0:	d503201f 	nop
     7f4:	14000006 	b	80c <hmac_init+0x150>
/home/hfut/phytium-pi-os/output/build/phytium-optee-v4.6.0/app/media_crypto/ta/media_crypto_ta.c:329
     7f8:	d503201f 	nop
     7fc:	14000004 	b	80c <hmac_init+0x150>
/home/hfut/phytium-pi-os/output/build/phytium-optee-v4.6.0/app/media_crypto/ta/media_crypto_ta.c:334
     800:	d503201f 	nop
     804:	14000002 	b	80c <hmac_init+0x150>
/home/hfut/phytium-pi-os/output/build/phytium-optee-v4.6.0/app/media_crypto/ta/media_crypto_ta.c:338
     808:	d503201f 	nop
/home/hfut/phytium-pi-os/output/build/phytium-optee-v4.6.0/app/media_crypto/ta/media_crypto_ta.c:345
     80c:	f94017e0 	ldr	x0, [sp, #40]
     810:	97fffe1a 	bl	78 <free_hmac_state>
/home/hfut/phytium-pi-os/output/build/phytium-optee-v4.6.0/app/media_crypto/ta/media_crypto_ta.c:346
     814:	b94033e0 	ldr	w0, [sp, #48]
/home/hfut/phytium-pi-os/output/build/phytium-optee-v4.6.0/app/media_crypto/ta/media_crypto_ta.c:347 (discriminator 1)
     818:	2a0003e1 	mov	w1, w0
     81c:	f0000120 	adrp	x0, 27000 <_DYNAMIC>
     820:	f9409800 	ldr	x0, [x0, #304]
     824:	f94047e3 	ldr	x3, [sp, #136]
     828:	f9400002 	ldr	x2, [x0]
     82c:	eb020063 	subs	x3, x3, x2
     830:	d2800002 	mov	x2, #0x0                   	// #0
     834:	54000040 	b.eq	83c <hmac_init+0x180>  // b.none
/home/hfut/phytium-pi-os/output/build/phytium-optee-v4.6.0/app/media_crypto/ta/media_crypto_ta.c:347
     838:	94000105 	bl	c4c <__stack_chk_fail>
     83c:	2a0103e0 	mov	w0, w1
     840:	a8c97bfd 	ldp	x29, x30, [sp], #144
     844:	d65f03c0 	ret

0000000000000848 <hmac_update>:
hmac_update():
/home/hfut/phytium-pi-os/output/build/phytium-optee-v4.6.0/app/media_crypto/ta/media_crypto_ta.c:351
     848:	a9bc7bfd 	stp	x29, x30, [sp, #-64]!
     84c:	910003fd 	mov	x29, sp
     850:	f90017e0 	str	x0, [sp, #40]
     854:	b90027e1 	str	w1, [sp, #36]
     858:	f9000fe2 	str	x2, [sp, #24]
/home/hfut/phytium-pi-os/output/build/phytium-optee-v4.6.0/app/media_crypto/ta/media_crypto_ta.c:352
     85c:	528000a0 	mov	w0, #0x5                   	// #5
     860:	b9003fe0 	str	w0, [sp, #60]
/home/hfut/phytium-pi-os/output/build/phytium-optee-v4.6.0/app/media_crypto/ta/media_crypto_ta.c:357
     864:	f94017e0 	ldr	x0, [sp, #40]
     868:	f100001f 	cmp	x0, #0x0
     86c:	54000120 	b.eq	890 <hmac_update+0x48>  // b.none
/home/hfut/phytium-pi-os/output/build/phytium-optee-v4.6.0/app/media_crypto/ta/media_crypto_ta.c:357 (discriminator 1)
     870:	f94017e0 	ldr	x0, [sp, #40]
     874:	b9402800 	ldr	w0, [x0, #40]
     878:	7100001f 	cmp	w0, #0x0
     87c:	540000a0 	b.eq	890 <hmac_update+0x48>  // b.none
/home/hfut/phytium-pi-os/output/build/phytium-optee-v4.6.0/app/media_crypto/ta/media_crypto_ta.c:357 (discriminator 2)
     880:	f94017e0 	ldr	x0, [sp, #40]
     884:	f9400c00 	ldr	x0, [x0, #24]
     888:	f100001f 	cmp	x0, #0x0
     88c:	54000061 	b.ne	898 <hmac_update+0x50>  // b.any
/home/hfut/phytium-pi-os/output/build/phytium-optee-v4.6.0/app/media_crypto/ta/media_crypto_ta.c:358
     890:	129fff00 	mov	w0, #0xffff0007            	// #-65529
     894:	14000011 	b	8d8 <hmac_update+0x90>
/home/hfut/phytium-pi-os/output/build/phytium-optee-v4.6.0/app/media_crypto/ta/media_crypto_ta.c:360
     898:	b94027e1 	ldr	w1, [sp, #36]
     89c:	b9403fe0 	ldr	w0, [sp, #60]
     8a0:	6b00003f 	cmp	w1, w0
     8a4:	54000060 	b.eq	8b0 <hmac_update+0x68>  // b.none
/home/hfut/phytium-pi-os/output/build/phytium-optee-v4.6.0/app/media_crypto/ta/media_crypto_ta.c:361
     8a8:	129fff20 	mov	w0, #0xffff0006            	// #-65530
     8ac:	1400000b 	b	8d8 <hmac_update+0x90>
/home/hfut/phytium-pi-os/output/build/phytium-optee-v4.6.0/app/media_crypto/ta/media_crypto_ta.c:363
     8b0:	f94017e0 	ldr	x0, [sp, #40]
     8b4:	f9400c03 	ldr	x3, [x0, #24]
/home/hfut/phytium-pi-os/output/build/phytium-optee-v4.6.0/app/media_crypto/ta/media_crypto_ta.c:364
     8b8:	f9400fe0 	ldr	x0, [sp, #24]
     8bc:	f9400001 	ldr	x1, [x0]
/home/hfut/phytium-pi-os/output/build/phytium-optee-v4.6.0/app/media_crypto/ta/media_crypto_ta.c:363
     8c0:	f9400fe0 	ldr	x0, [sp, #24]
     8c4:	f9400400 	ldr	x0, [x0, #8]
     8c8:	aa0003e2 	mov	x2, x0
     8cc:	aa0303e0 	mov	x0, x3
     8d0:	94002d04 	bl	bce0 <TEE_MACUpdate>
/home/hfut/phytium-pi-os/output/build/phytium-optee-v4.6.0/app/media_crypto/ta/media_crypto_ta.c:365
     8d4:	52800000 	mov	w0, #0x0                   	// #0
/home/hfut/phytium-pi-os/output/build/phytium-optee-v4.6.0/app/media_crypto/ta/media_crypto_ta.c:366
     8d8:	a8c47bfd 	ldp	x29, x30, [sp], #64
     8dc:	d65f03c0 	ret

00000000000008e0 <hmac_final>:
hmac_final():
/home/hfut/phytium-pi-os/output/build/phytium-optee-v4.6.0/app/media_crypto/ta/media_crypto_ta.c:370
     8e0:	a9bb7bfd 	stp	x29, x30, [sp, #-80]!
     8e4:	910003fd 	mov	x29, sp
     8e8:	f90017e0 	str	x0, [sp, #40]
     8ec:	b90027e1 	str	w1, [sp, #36]
     8f0:	f9000fe2 	str	x2, [sp, #24]
     8f4:	f0000120 	adrp	x0, 27000 <_DYNAMIC>
     8f8:	f9409800 	ldr	x0, [x0, #304]
     8fc:	f9400001 	ldr	x1, [x0]
     900:	f90027e1 	str	x1, [sp, #72]
     904:	d2800001 	mov	x1, #0x0                   	// #0
/home/hfut/phytium-pi-os/output/build/phytium-optee-v4.6.0/app/media_crypto/ta/media_crypto_ta.c:373
     908:	528000c0 	mov	w0, #0x6                   	// #6
     90c:	b9003be0 	str	w0, [sp, #56]
/home/hfut/phytium-pi-os/output/build/phytium-optee-v4.6.0/app/media_crypto/ta/media_crypto_ta.c:378
     910:	f94017e0 	ldr	x0, [sp, #40]
     914:	f100001f 	cmp	x0, #0x0
     918:	54000120 	b.eq	93c <hmac_final+0x5c>  // b.none
/home/hfut/phytium-pi-os/output/build/phytium-optee-v4.6.0/app/media_crypto/ta/media_crypto_ta.c:378 (discriminator 1)
     91c:	f94017e0 	ldr	x0, [sp, #40]
     920:	b9402800 	ldr	w0, [x0, #40]
     924:	7100001f 	cmp	w0, #0x0
     928:	540000a0 	b.eq	93c <hmac_final+0x5c>  // b.none
/home/hfut/phytium-pi-os/output/build/phytium-optee-v4.6.0/app/media_crypto/ta/media_crypto_ta.c:378 (discriminator 2)
     92c:	f94017e0 	ldr	x0, [sp, #40]
     930:	f9400c00 	ldr	x0, [x0, #24]
     934:	f100001f 	cmp	x0, #0x0
     938:	54000061 	b.ne	944 <hmac_final+0x64>  // b.any
/home/hfut/phytium-pi-os/output/build/phytium-optee-v4.6.0/app/media_crypto/ta/media_crypto_ta.c:379
     93c:	129fff00 	mov	w0, #0xffff0007            	// #-65529
     940:	14000025 	b	9d4 <hmac_final+0xf4>
/home/hfut/phytium-pi-os/output/build/phytium-optee-v4.6.0/app/media_crypto/ta/media_crypto_ta.c:381
     944:	b94027e1 	ldr	w1, [sp, #36]
     948:	b9403be0 	ldr	w0, [sp, #56]
     94c:	6b00003f 	cmp	w1, w0
     950:	54000060 	b.eq	95c <hmac_final+0x7c>  // b.none
/home/hfut/phytium-pi-os/output/build/phytium-optee-v4.6.0/app/media_crypto/ta/media_crypto_ta.c:382
     954:	129fff20 	mov	w0, #0xffff0006            	// #-65530
     958:	1400001f 	b	9d4 <hmac_final+0xf4>
/home/hfut/phytium-pi-os/output/build/phytium-optee-v4.6.0/app/media_crypto/ta/media_crypto_ta.c:384
     95c:	f9400fe0 	ldr	x0, [sp, #24]
     960:	f9400400 	ldr	x0, [x0, #8]
     964:	f1007c1f 	cmp	x0, #0x1f
     968:	54000068 	b.hi	974 <hmac_final+0x94>  // b.pmore
/home/hfut/phytium-pi-os/output/build/phytium-optee-v4.6.0/app/media_crypto/ta/media_crypto_ta.c:385
     96c:	129ffde0 	mov	w0, #0xffff0010            	// #-65520
     970:	14000019 	b	9d4 <hmac_final+0xf4>
/home/hfut/phytium-pi-os/output/build/phytium-optee-v4.6.0/app/media_crypto/ta/media_crypto_ta.c:387
     974:	f9400fe0 	ldr	x0, [sp, #24]
     978:	f9400400 	ldr	x0, [x0, #8]
     97c:	f90023e0 	str	x0, [sp, #64]
/home/hfut/phytium-pi-os/output/build/phytium-optee-v4.6.0/app/media_crypto/ta/media_crypto_ta.c:388
     980:	f94017e0 	ldr	x0, [sp, #40]
     984:	f9400c05 	ldr	x5, [x0, #24]
     988:	f9400fe0 	ldr	x0, [sp, #24]
     98c:	f9400000 	ldr	x0, [x0]
     990:	910103e1 	add	x1, sp, #0x40
     994:	aa0103e4 	mov	x4, x1
     998:	aa0003e3 	mov	x3, x0
     99c:	d2800002 	mov	x2, #0x0                   	// #0
     9a0:	d2800001 	mov	x1, #0x0                   	// #0
     9a4:	aa0503e0 	mov	x0, x5
     9a8:	94002d0c 	bl	bdd8 <TEE_MACComputeFinal>
     9ac:	b9003fe0 	str	w0, [sp, #60]
/home/hfut/phytium-pi-os/output/build/phytium-optee-v4.6.0/app/media_crypto/ta/media_crypto_ta.c:390
     9b0:	b9403fe0 	ldr	w0, [sp, #60]
     9b4:	7100001f 	cmp	w0, #0x0
     9b8:	54000081 	b.ne	9c8 <hmac_final+0xe8>  // b.any
/home/hfut/phytium-pi-os/output/build/phytium-optee-v4.6.0/app/media_crypto/ta/media_crypto_ta.c:391
     9bc:	f94023e1 	ldr	x1, [sp, #64]
     9c0:	f9400fe0 	ldr	x0, [sp, #24]
     9c4:	f9000401 	str	x1, [x0, #8]
/home/hfut/phytium-pi-os/output/build/phytium-optee-v4.6.0/app/media_crypto/ta/media_crypto_ta.c:393
     9c8:	f94017e0 	ldr	x0, [sp, #40]
     9cc:	97fffdab 	bl	78 <free_hmac_state>
/home/hfut/phytium-pi-os/output/build/phytium-optee-v4.6.0/app/media_crypto/ta/media_crypto_ta.c:394
     9d0:	b9403fe0 	ldr	w0, [sp, #60]
/home/hfut/phytium-pi-os/output/build/phytium-optee-v4.6.0/app/media_crypto/ta/media_crypto_ta.c:395 (discriminator 1)
     9d4:	2a0003e1 	mov	w1, w0
     9d8:	f0000120 	adrp	x0, 27000 <_DYNAMIC>
     9dc:	f9409800 	ldr	x0, [x0, #304]
     9e0:	f94027e3 	ldr	x3, [sp, #72]
     9e4:	f9400002 	ldr	x2, [x0]
     9e8:	eb020063 	subs	x3, x3, x2
     9ec:	d2800002 	mov	x2, #0x0                   	// #0
     9f0:	54000040 	b.eq	9f8 <hmac_final+0x118>  // b.none
/home/hfut/phytium-pi-os/output/build/phytium-optee-v4.6.0/app/media_crypto/ta/media_crypto_ta.c:395
     9f4:	94000096 	bl	c4c <__stack_chk_fail>
     9f8:	2a0103e0 	mov	w0, w1
     9fc:	a8c57bfd 	ldp	x29, x30, [sp], #80
     a00:	d65f03c0 	ret

0000000000000a04 <hmac_finish>:
hmac_finish():
/home/hfut/phytium-pi-os/output/build/phytium-optee-v4.6.0/app/media_crypto/ta/media_crypto_ta.c:399
     a04:	a9bc7bfd 	stp	x29, x30, [sp, #-64]!
     a08:	910003fd 	mov	x29, sp
     a0c:	f90017e0 	str	x0, [sp, #40]
     a10:	b90027e1 	str	w1, [sp, #36]
     a14:	f9000fe2 	str	x2, [sp, #24]
/home/hfut/phytium-pi-os/output/build/phytium-optee-v4.6.0/app/media_crypto/ta/media_crypto_ta.c:400
     a18:	b9003fff 	str	wzr, [sp, #60]
/home/hfut/phytium-pi-os/output/build/phytium-optee-v4.6.0/app/media_crypto/ta/media_crypto_ta.c:407
     a1c:	b94027e1 	ldr	w1, [sp, #36]
     a20:	b9403fe0 	ldr	w0, [sp, #60]
     a24:	6b00003f 	cmp	w1, w0
     a28:	54000060 	b.eq	a34 <hmac_finish+0x30>  // b.none
/home/hfut/phytium-pi-os/output/build/phytium-optee-v4.6.0/app/media_crypto/ta/media_crypto_ta.c:408
     a2c:	129fff20 	mov	w0, #0xffff0006            	// #-65530
     a30:	14000004 	b	a40 <hmac_finish+0x3c>
/home/hfut/phytium-pi-os/output/build/phytium-optee-v4.6.0/app/media_crypto/ta/media_crypto_ta.c:410
     a34:	f94017e0 	ldr	x0, [sp, #40]
     a38:	97fffd90 	bl	78 <free_hmac_state>
/home/hfut/phytium-pi-os/output/build/phytium-optee-v4.6.0/app/media_crypto/ta/media_crypto_ta.c:411
     a3c:	52800000 	mov	w0, #0x0                   	// #0
/home/hfut/phytium-pi-os/output/build/phytium-optee-v4.6.0/app/media_crypto/ta/media_crypto_ta.c:412
     a40:	a8c47bfd 	ldp	x29, x30, [sp], #64
     a44:	d65f03c0 	ret

0000000000000a48 <TA_InvokeCommandEntryPoint>:
TA_InvokeCommandEntryPoint():
/home/hfut/phytium-pi-os/output/build/phytium-optee-v4.6.0/app/media_crypto/ta/media_crypto_ta.c:416
     a48:	a9bc7bfd 	stp	x29, x30, [sp, #-64]!
     a4c:	910003fd 	mov	x29, sp
     a50:	f90017e0 	str	x0, [sp, #40]
     a54:	b90027e1 	str	w1, [sp, #36]
     a58:	b90023e2 	str	w2, [sp, #32]
     a5c:	f9000fe3 	str	x3, [sp, #24]
/home/hfut/phytium-pi-os/output/build/phytium-optee-v4.6.0/app/media_crypto/ta/media_crypto_ta.c:417
     a60:	f94017e0 	ldr	x0, [sp, #40]
     a64:	f9001fe0 	str	x0, [sp, #56]
/home/hfut/phytium-pi-os/output/build/phytium-optee-v4.6.0/app/media_crypto/ta/media_crypto_ta.c:419
     a68:	b94027e0 	ldr	w0, [sp, #36]
     a6c:	7100201f 	cmp	w0, #0x8
     a70:	54000b00 	b.eq	bd0 <TA_InvokeCommandEntryPoint+0x188>  // b.none
     a74:	b94027e0 	ldr	w0, [sp, #36]
     a78:	7100201f 	cmp	w0, #0x8
     a7c:	54000b48 	b.hi	be4 <TA_InvokeCommandEntryPoint+0x19c>  // b.pmore
     a80:	b94027e0 	ldr	w0, [sp, #36]
     a84:	71001c1f 	cmp	w0, #0x7
     a88:	540009a0 	b.eq	bbc <TA_InvokeCommandEntryPoint+0x174>  // b.none
     a8c:	b94027e0 	ldr	w0, [sp, #36]
     a90:	71001c1f 	cmp	w0, #0x7
     a94:	54000a88 	b.hi	be4 <TA_InvokeCommandEntryPoint+0x19c>  // b.pmore
     a98:	b94027e0 	ldr	w0, [sp, #36]
     a9c:	7100181f 	cmp	w0, #0x6
     aa0:	54000840 	b.eq	ba8 <TA_InvokeCommandEntryPoint+0x160>  // b.none
     aa4:	b94027e0 	ldr	w0, [sp, #36]
     aa8:	7100181f 	cmp	w0, #0x6
     aac:	540009c8 	b.hi	be4 <TA_InvokeCommandEntryPoint+0x19c>  // b.pmore
     ab0:	b94027e0 	ldr	w0, [sp, #36]
     ab4:	7100141f 	cmp	w0, #0x5
     ab8:	540006e0 	b.eq	b94 <TA_InvokeCommandEntryPoint+0x14c>  // b.none
     abc:	b94027e0 	ldr	w0, [sp, #36]
     ac0:	7100141f 	cmp	w0, #0x5
     ac4:	54000908 	b.hi	be4 <TA_InvokeCommandEntryPoint+0x19c>  // b.pmore
     ac8:	b94027e0 	ldr	w0, [sp, #36]
     acc:	7100101f 	cmp	w0, #0x4
     ad0:	54000580 	b.eq	b80 <TA_InvokeCommandEntryPoint+0x138>  // b.none
     ad4:	b94027e0 	ldr	w0, [sp, #36]
     ad8:	7100101f 	cmp	w0, #0x4
     adc:	54000848 	b.hi	be4 <TA_InvokeCommandEntryPoint+0x19c>  // b.pmore
     ae0:	b94027e0 	ldr	w0, [sp, #36]
     ae4:	71000c1f 	cmp	w0, #0x3
     ae8:	54000420 	b.eq	b6c <TA_InvokeCommandEntryPoint+0x124>  // b.none
     aec:	b94027e0 	ldr	w0, [sp, #36]
     af0:	71000c1f 	cmp	w0, #0x3
     af4:	54000788 	b.hi	be4 <TA_InvokeCommandEntryPoint+0x19c>  // b.pmore
     af8:	b94027e0 	ldr	w0, [sp, #36]
     afc:	7100081f 	cmp	w0, #0x2
     b00:	540002a0 	b.eq	b54 <TA_InvokeCommandEntryPoint+0x10c>  // b.none
     b04:	b94027e0 	ldr	w0, [sp, #36]
     b08:	7100081f 	cmp	w0, #0x2
     b0c:	540006c8 	b.hi	be4 <TA_InvokeCommandEntryPoint+0x19c>  // b.pmore
     b10:	b94027e0 	ldr	w0, [sp, #36]
     b14:	7100001f 	cmp	w0, #0x0
     b18:	540000a0 	b.eq	b2c <TA_InvokeCommandEntryPoint+0xe4>  // b.none
     b1c:	b94027e0 	ldr	w0, [sp, #36]
     b20:	7100041f 	cmp	w0, #0x1
     b24:	540000c0 	b.eq	b3c <TA_InvokeCommandEntryPoint+0xf4>  // b.none
     b28:	1400002f 	b	be4 <TA_InvokeCommandEntryPoint+0x19c>
/home/hfut/phytium-pi-os/output/build/phytium-optee-v4.6.0/app/media_crypto/ta/media_crypto_ta.c:421
     b2c:	f9400fe1 	ldr	x1, [sp, #24]
     b30:	b94023e0 	ldr	w0, [sp, #32]
     b34:	97fffdee 	bl	2ec <inc_value>
     b38:	1400002c 	b	be8 <TA_InvokeCommandEntryPoint+0x1a0>
/home/hfut/phytium-pi-os/output/build/phytium-optee-v4.6.0/app/media_crypto/ta/media_crypto_ta.c:423
     b3c:	f9400fe3 	ldr	x3, [sp, #24]
     b40:	b94023e2 	ldr	w2, [sp, #32]
     b44:	52800001 	mov	w1, #0x0                   	// #0
     b48:	f9401fe0 	ldr	x0, [sp, #56]
     b4c:	97fffdfb 	bl	338 <cipher_init>
     b50:	14000026 	b	be8 <TA_InvokeCommandEntryPoint+0x1a0>
/home/hfut/phytium-pi-os/output/build/phytium-optee-v4.6.0/app/media_crypto/ta/media_crypto_ta.c:425
     b54:	f9400fe3 	ldr	x3, [sp, #24]
     b58:	b94023e2 	ldr	w2, [sp, #32]
     b5c:	52800021 	mov	w1, #0x1                   	// #1
     b60:	f9401fe0 	ldr	x0, [sp, #56]
     b64:	97fffdf5 	bl	338 <cipher_init>
     b68:	14000020 	b	be8 <TA_InvokeCommandEntryPoint+0x1a0>
/home/hfut/phytium-pi-os/output/build/phytium-optee-v4.6.0/app/media_crypto/ta/media_crypto_ta.c:427
     b6c:	f9400fe2 	ldr	x2, [sp, #24]
     b70:	b94023e1 	ldr	w1, [sp, #32]
     b74:	f9401fe0 	ldr	x0, [sp, #56]
     b78:	97fffe71 	bl	53c <cipher_update>
     b7c:	1400001b 	b	be8 <TA_InvokeCommandEntryPoint+0x1a0>
/home/hfut/phytium-pi-os/output/build/phytium-optee-v4.6.0/app/media_crypto/ta/media_crypto_ta.c:429
     b80:	f9400fe2 	ldr	x2, [sp, #24]
     b84:	b94023e1 	ldr	w1, [sp, #32]
     b88:	f9401fe0 	ldr	x0, [sp, #56]
     b8c:	97fffebb 	bl	678 <cipher_finish>
     b90:	14000016 	b	be8 <TA_InvokeCommandEntryPoint+0x1a0>
/home/hfut/phytium-pi-os/output/build/phytium-optee-v4.6.0/app/media_crypto/ta/media_crypto_ta.c:431
     b94:	f9400fe2 	ldr	x2, [sp, #24]
     b98:	b94023e1 	ldr	w1, [sp, #32]
     b9c:	f9401fe0 	ldr	x0, [sp, #56]
     ba0:	97fffec7 	bl	6bc <hmac_init>
     ba4:	14000011 	b	be8 <TA_InvokeCommandEntryPoint+0x1a0>
/home/hfut/phytium-pi-os/output/build/phytium-optee-v4.6.0/app/media_crypto/ta/media_crypto_ta.c:433
     ba8:	f9400fe2 	ldr	x2, [sp, #24]
     bac:	b94023e1 	ldr	w1, [sp, #32]
     bb0:	f9401fe0 	ldr	x0, [sp, #56]
     bb4:	97ffff25 	bl	848 <hmac_update>
     bb8:	1400000c 	b	be8 <TA_InvokeCommandEntryPoint+0x1a0>
/home/hfut/phytium-pi-os/output/build/phytium-optee-v4.6.0/app/media_crypto/ta/media_crypto_ta.c:435
     bbc:	f9400fe2 	ldr	x2, [sp, #24]
     bc0:	b94023e1 	ldr	w1, [sp, #32]
     bc4:	f9401fe0 	ldr	x0, [sp, #56]
     bc8:	97ffff46 	bl	8e0 <hmac_final>
     bcc:	14000007 	b	be8 <TA_InvokeCommandEntryPoint+0x1a0>
/home/hfut/phytium-pi-os/output/build/phytium-optee-v4.6.0/app/media_crypto/ta/media_crypto_ta.c:437
     bd0:	f9400fe2 	ldr	x2, [sp, #24]
     bd4:	b94023e1 	ldr	w1, [sp, #32]
     bd8:	f9401fe0 	ldr	x0, [sp, #56]
     bdc:	97ffff8a 	bl	a04 <hmac_finish>
     be0:	14000002 	b	be8 <TA_InvokeCommandEntryPoint+0x1a0>
/home/hfut/phytium-pi-os/output/build/phytium-optee-v4.6.0/app/media_crypto/ta/media_crypto_ta.c:439
     be4:	129ffea0 	mov	w0, #0xffff000a            	// #-65526
/home/hfut/phytium-pi-os/output/build/phytium-optee-v4.6.0/app/media_crypto/ta/media_crypto_ta.c:441
     be8:	a8c47bfd 	ldp	x29, x30, [sp], #64
     bec:	d65f03c0 	ret

0000000000000bf0 <__ta_entry>:
__ta_entry():
/home/hfut/phytium-pi-os/output/build/phytium-optee-v4.6.0/out/data/link/export-ta_arm64/src/user_ta_header.c:51
     bf0:	a9bb7bfd 	stp	x29, x30, [sp, #-80]!
     bf4:	910003fd 	mov	x29, sp
     bf8:	f90017e0 	str	x0, [sp, #40]
     bfc:	f90013e1 	str	x1, [sp, #32]
     c00:	f9000fe2 	str	x2, [sp, #24]
     c04:	f9000be3 	str	x3, [sp, #16]
     c08:	f0000120 	adrp	x0, 27000 <_DYNAMIC>
     c0c:	f9409800 	ldr	x0, [x0, #304]
     c10:	f9400001 	ldr	x1, [x0]
     c14:	f90027e1 	str	x1, [sp, #72]
     c18:	d2800001 	mov	x1, #0x0                   	// #0
/home/hfut/phytium-pi-os/output/build/phytium-optee-v4.6.0/out/data/link/export-ta_arm64/src/user_ta_header.c:53
     c1c:	52bfffe0 	mov	w0, #0xffff0000            	// #-65536
     c20:	b9003fe0 	str	w0, [sp, #60]
/home/hfut/phytium-pi-os/output/build/phytium-optee-v4.6.0/out/data/link/export-ta_arm64/src/user_ta_header.c:70
     c24:	f9400be3 	ldr	x3, [sp, #16]
     c28:	f9400fe2 	ldr	x2, [sp, #24]
     c2c:	f94013e1 	ldr	x1, [sp, #32]
     c30:	f94017e0 	ldr	x0, [sp, #40]
     c34:	94003f7a 	bl	10a1c <__utee_entry>
     c38:	b9003fe0 	str	w0, [sp, #60]
/home/hfut/phytium-pi-os/output/build/phytium-optee-v4.6.0/out/data/link/export-ta_arm64/src/user_ta_header.c:81
     c3c:	b9403fe0 	ldr	w0, [sp, #60]
     c40:	94003fa5 	bl	10ad4 <_utee_return>

0000000000000c44 <tahead_get_trace_level>:
tahead_get_trace_level():
/home/hfut/phytium-pi-os/output/build/phytium-optee-v4.6.0/out/data/link/export-ta_arm64/src/user_ta_header.c:192
     c44:	52800040 	mov	w0, #0x2                   	// #2
/home/hfut/phytium-pi-os/output/build/phytium-optee-v4.6.0/out/data/link/export-ta_arm64/src/user_ta_header.c:193
     c48:	d65f03c0 	ret

0000000000000c4c <__stack_chk_fail>:
__stack_chk_fail():
/home/hfut/phytium-pi-os/output/build/phytium-optee-v4.6.0/optee_os/lib/libutils/isoc/stack_check.c:24
     c4c:	a9bf7bfd 	stp	x29, x30, [sp, #-16]!
     c50:	910003fd 	mov	x29, sp
/home/hfut/phytium-pi-os/output/build/phytium-optee-v4.6.0/optee_os/lib/libutils/isoc/stack_check.c:25
     c54:	b0000120 	adrp	x0, 25000 <__text_end+0x3a64>
     c58:	9112c004 	add	x4, x0, #0x4b0
     c5c:	52800023 	mov	w3, #0x1                   	// #1
     c60:	52800022 	mov	w2, #0x1                   	// #1
     c64:	52800001 	mov	w1, #0x0                   	// #0
     c68:	d2800000 	mov	x0, #0x0                   	// #0
     c6c:	9400005f 	bl	de8 <trace_printf>
/home/hfut/phytium-pi-os/output/build/phytium-optee-v4.6.0/optee_os/lib/libutils/isoc/stack_check.c:27 (discriminator 1)
     c70:	1299fe00 	mov	w0, #0xffff300f            	// #-53233
     c74:	94003f95 	bl	10ac8 <_utee_panic>
     c78:	17fffffe 	b	c70 <__stack_chk_fail+0x24>

0000000000000c7c <trace_set_level>:
trace_set_level():
/home/hfut/phytium-pi-os/output/build/phytium-optee-v4.6.0/optee_os/lib/libutils/ext/trace.c:25
     c7c:	d10043ff 	sub	sp, sp, #0x10
     c80:	b9000fe0 	str	w0, [sp, #12]
/home/hfut/phytium-pi-os/output/build/phytium-optee-v4.6.0/optee_os/lib/libutils/ext/trace.c:26
     c84:	b9400fe0 	ldr	w0, [sp, #12]
     c88:	7100001f 	cmp	w0, #0x0
     c8c:	5400012b 	b.lt	cb0 <trace_set_level+0x34>  // b.tstop
/home/hfut/phytium-pi-os/output/build/phytium-optee-v4.6.0/optee_os/lib/libutils/ext/trace.c:26 (discriminator 1)
     c90:	b9400fe0 	ldr	w0, [sp, #12]
     c94:	7100101f 	cmp	w0, #0x4
     c98:	540000cc 	b.gt	cb0 <trace_set_level+0x34>
/home/hfut/phytium-pi-os/output/build/phytium-optee-v4.6.0/optee_os/lib/libutils/ext/trace.c:27
     c9c:	f0000120 	adrp	x0, 27000 <_DYNAMIC>
     ca0:	f940a800 	ldr	x0, [x0, #336]
     ca4:	b9400fe1 	ldr	w1, [sp, #12]
     ca8:	b9000001 	str	w1, [x0]
     cac:	14000006 	b	cc4 <trace_set_level+0x48>
/home/hfut/phytium-pi-os/output/build/phytium-optee-v4.6.0/optee_os/lib/libutils/ext/trace.c:29
     cb0:	f0000120 	adrp	x0, 27000 <_DYNAMIC>
     cb4:	f940a800 	ldr	x0, [x0, #336]
     cb8:	52800081 	mov	w1, #0x4                   	// #4
     cbc:	b9000001 	str	w1, [x0]
/home/hfut/phytium-pi-os/output/build/phytium-optee-v4.6.0/optee_os/lib/libutils/ext/trace.c:30
     cc0:	d503201f 	nop
     cc4:	d503201f 	nop
     cc8:	910043ff 	add	sp, sp, #0x10
     ccc:	d65f03c0 	ret

0000000000000cd0 <trace_get_level>:
trace_get_level():
/home/hfut/phytium-pi-os/output/build/phytium-optee-v4.6.0/optee_os/lib/libutils/ext/trace.c:34
     cd0:	f0000120 	adrp	x0, 27000 <_DYNAMIC>
     cd4:	f940a800 	ldr	x0, [x0, #336]
     cd8:	b9400000 	ldr	w0, [x0]
/home/hfut/phytium-pi-os/output/build/phytium-optee-v4.6.0/optee_os/lib/libutils/ext/trace.c:35
     cdc:	d65f03c0 	ret

0000000000000ce0 <trace_level_to_string>:
trace_level_to_string():
/home/hfut/phytium-pi-os/output/build/phytium-optee-v4.6.0/optee_os/lib/libutils/ext/trace.c:38
     ce0:	d10083ff 	sub	sp, sp, #0x20
     ce4:	b9000fe0 	str	w0, [sp, #12]
     ce8:	39002fe1 	strb	w1, [sp, #11]
/home/hfut/phytium-pi-os/output/build/phytium-optee-v4.6.0/optee_os/lib/libutils/ext/trace.c:47
     cec:	b9001fff 	str	wzr, [sp, #28]
/home/hfut/phytium-pi-os/output/build/phytium-optee-v4.6.0/optee_os/lib/libutils/ext/trace.c:49
     cf0:	39402fe0 	ldrb	w0, [sp, #11]
     cf4:	52000000 	eor	w0, w0, #0x1
     cf8:	12001c00 	and	w0, w0, #0xff
     cfc:	7100001f 	cmp	w0, #0x0
     d00:	54000060 	b.eq	d0c <trace_level_to_string+0x2c>  // b.none
/home/hfut/phytium-pi-os/output/build/phytium-optee-v4.6.0/optee_os/lib/libutils/ext/trace.c:50
     d04:	528009a0 	mov	w0, #0x4d                  	// #77
     d08:	1400000d 	b	d3c <trace_level_to_string+0x5c>
/home/hfut/phytium-pi-os/output/build/phytium-optee-v4.6.0/optee_os/lib/libutils/ext/trace.c:52
     d0c:	b9400fe0 	ldr	w0, [sp, #12]
     d10:	7100001f 	cmp	w0, #0x0
     d14:	540000cb 	b.lt	d2c <trace_level_to_string+0x4c>  // b.tstop
/home/hfut/phytium-pi-os/output/build/phytium-optee-v4.6.0/optee_os/lib/libutils/ext/trace.c:52 (discriminator 1)
     d18:	b9400fe0 	ldr	w0, [sp, #12]
     d1c:	7100101f 	cmp	w0, #0x4
     d20:	5400006c 	b.gt	d2c <trace_level_to_string+0x4c>
/home/hfut/phytium-pi-os/output/build/phytium-optee-v4.6.0/optee_os/lib/libutils/ext/trace.c:53
     d24:	b9400fe0 	ldr	w0, [sp, #12]
     d28:	b9001fe0 	str	w0, [sp, #28]
/home/hfut/phytium-pi-os/output/build/phytium-optee-v4.6.0/optee_os/lib/libutils/ext/trace.c:55
     d2c:	b0000120 	adrp	x0, 25000 <__text_end+0x3a64>
     d30:	9113e001 	add	x1, x0, #0x4f8
     d34:	b9801fe0 	ldrsw	x0, [sp, #28]
     d38:	38606820 	ldrb	w0, [x1, x0]
/home/hfut/phytium-pi-os/output/build/phytium-optee-v4.6.0/optee_os/lib/libutils/ext/trace.c:56
     d3c:	910083ff 	add	sp, sp, #0x20
     d40:	d65f03c0 	ret

0000000000000d44 <print_thread_id>:
print_thread_id():
/home/hfut/phytium-pi-os/output/build/phytium-optee-v4.6.0/optee_os/lib/libutils/ext/trace.c:59
     d44:	a9bd7bfd 	stp	x29, x30, [sp, #-48]!
     d48:	910003fd 	mov	x29, sp
     d4c:	f9000fe0 	str	x0, [sp, #24]
     d50:	f9000be1 	str	x1, [sp, #16]
/home/hfut/phytium-pi-os/output/build/phytium-optee-v4.6.0/optee_os/lib/libutils/ext/trace.c:65
     d54:	52800020 	mov	w0, #0x1                   	// #1
     d58:	b9002be0 	str	w0, [sp, #40]
/home/hfut/phytium-pi-os/output/build/phytium-optee-v4.6.0/optee_os/lib/libutils/ext/trace.c:67
     d5c:	94000a0d 	bl	3590 <trace_ext_get_thread_id>
     d60:	b9002fe0 	str	w0, [sp, #44]
/home/hfut/phytium-pi-os/output/build/phytium-optee-v4.6.0/optee_os/lib/libutils/ext/trace.c:69
     d64:	b9402fe0 	ldr	w0, [sp, #44]
     d68:	7100001f 	cmp	w0, #0x0
     d6c:	5400012b 	b.lt	d90 <print_thread_id+0x4c>  // b.tstop
/home/hfut/phytium-pi-os/output/build/phytium-optee-v4.6.0/optee_os/lib/libutils/ext/trace.c:70
     d70:	b9402fe4 	ldr	w4, [sp, #44]
     d74:	b9402be3 	ldr	w3, [sp, #40]
     d78:	b0000120 	adrp	x0, 25000 <__text_end+0x3a64>
     d7c:	91132002 	add	x2, x0, #0x4c8
     d80:	f9400be1 	ldr	x1, [sp, #16]
     d84:	f9400fe0 	ldr	x0, [sp, #24]
     d88:	94000150 	bl	12c8 <snprintk>
     d8c:	14000009 	b	db0 <print_thread_id+0x6c>
/home/hfut/phytium-pi-os/output/build/phytium-optee-v4.6.0/optee_os/lib/libutils/ext/trace.c:72
     d90:	b0000120 	adrp	x0, 25000 <__text_end+0x3a64>
     d94:	91134004 	add	x4, x0, #0x4d0
     d98:	b9402be3 	ldr	w3, [sp, #40]
     d9c:	b0000120 	adrp	x0, 25000 <__text_end+0x3a64>
     da0:	91136002 	add	x2, x0, #0x4d8
     da4:	f9400be1 	ldr	x1, [sp, #16]
     da8:	f9400fe0 	ldr	x0, [sp, #24]
     dac:	94000147 	bl	12c8 <snprintk>
/home/hfut/phytium-pi-os/output/build/phytium-optee-v4.6.0/optee_os/lib/libutils/ext/trace.c:73
     db0:	a8c37bfd 	ldp	x29, x30, [sp], #48
     db4:	d65f03c0 	ret

0000000000000db8 <print_core_id>:
print_core_id():
/home/hfut/phytium-pi-os/output/build/phytium-optee-v4.6.0/optee_os/lib/libutils/ext/trace.c:107
     db8:	d10043ff 	sub	sp, sp, #0x10
     dbc:	f90007e0 	str	x0, [sp, #8]
     dc0:	f90003e1 	str	x1, [sp]
/home/hfut/phytium-pi-os/output/build/phytium-optee-v4.6.0/optee_os/lib/libutils/ext/trace.c:108
     dc4:	52800000 	mov	w0, #0x0                   	// #0
/home/hfut/phytium-pi-os/output/build/phytium-optee-v4.6.0/optee_os/lib/libutils/ext/trace.c:109
     dc8:	910043ff 	add	sp, sp, #0x10
     dcc:	d65f03c0 	ret

0000000000000dd0 <print_guest_id>:
print_guest_id():
/home/hfut/phytium-pi-os/output/build/phytium-optee-v4.6.0/optee_os/lib/libutils/ext/trace.c:112
     dd0:	d10043ff 	sub	sp, sp, #0x10
     dd4:	f90007e0 	str	x0, [sp, #8]
     dd8:	f90003e1 	str	x1, [sp]
/home/hfut/phytium-pi-os/output/build/phytium-optee-v4.6.0/optee_os/lib/libutils/ext/trace.c:113
     ddc:	52800000 	mov	w0, #0x0                   	// #0
/home/hfut/phytium-pi-os/output/build/phytium-optee-v4.6.0/optee_os/lib/libutils/ext/trace.c:114
     de0:	910043ff 	add	sp, sp, #0x10
     de4:	d65f03c0 	ret

0000000000000de8 <trace_printf>:
trace_printf():
/home/hfut/phytium-pi-os/output/build/phytium-optee-v4.6.0/optee_os/lib/libutils/ext/trace.c:120
     de8:	a9ae7bfd 	stp	x29, x30, [sp, #-288]!
     dec:	910003fd 	mov	x29, sp
     df0:	f90027e0 	str	x0, [sp, #72]
     df4:	b90047e1 	str	w1, [sp, #68]
     df8:	b90043e2 	str	w2, [sp, #64]
     dfc:	3900ffe3 	strb	w3, [sp, #63]
     e00:	f9001be4 	str	x4, [sp, #48]
     e04:	f90087e5 	str	x5, [sp, #264]
     e08:	f9008be6 	str	x6, [sp, #272]
     e0c:	f9008fe7 	str	x7, [sp, #280]
     e10:	3d8023e0 	str	q0, [sp, #128]
     e14:	3d8027e1 	str	q1, [sp, #144]
     e18:	3d802be2 	str	q2, [sp, #160]
     e1c:	3d802fe3 	str	q3, [sp, #176]
     e20:	3d8033e4 	str	q4, [sp, #192]
     e24:	3d8037e5 	str	q5, [sp, #208]
     e28:	3d803be6 	str	q6, [sp, #224]
     e2c:	3d803fe7 	str	q7, [sp, #240]
     e30:	f0000120 	adrp	x0, 27000 <_DYNAMIC>
     e34:	f9409800 	ldr	x0, [x0, #304]
     e38:	f9400001 	ldr	x1, [x0]
     e3c:	f9003fe1 	str	x1, [sp, #120]
     e40:	d2800001 	mov	x1, #0x0                   	// #0
/home/hfut/phytium-pi-os/output/build/phytium-optee-v4.6.0/optee_os/lib/libutils/ext/trace.c:123
     e44:	910483e0 	add	x0, sp, #0x120
     e48:	f9002fe0 	str	x0, [sp, #88]
     e4c:	910483e0 	add	x0, sp, #0x120
     e50:	f90033e0 	str	x0, [sp, #96]
     e54:	910403e0 	add	x0, sp, #0x100
     e58:	f90037e0 	str	x0, [sp, #104]
     e5c:	128002e0 	mov	w0, #0xffffffe8            	// #-24
     e60:	b90073e0 	str	w0, [sp, #112]
     e64:	12800fe0 	mov	w0, #0xffffff80            	// #-128
     e68:	b90077e0 	str	w0, [sp, #116]
/home/hfut/phytium-pi-os/output/build/phytium-optee-v4.6.0/optee_os/lib/libutils/ext/trace.c:124
     e6c:	f9402fe0 	ldr	x0, [sp, #88]
     e70:	f9000be0 	str	x0, [sp, #16]
     e74:	f94033e0 	ldr	x0, [sp, #96]
     e78:	f9000fe0 	str	x0, [sp, #24]
     e7c:	f94037e0 	ldr	x0, [sp, #104]
     e80:	f90013e0 	str	x0, [sp, #32]
     e84:	f9403be0 	ldr	x0, [sp, #112]
     e88:	f90017e0 	str	x0, [sp, #40]
     e8c:	910043e0 	add	x0, sp, #0x10
     e90:	aa0003e5 	mov	x5, x0
     e94:	f9401be4 	ldr	x4, [sp, #48]
     e98:	3940ffe3 	ldrb	w3, [sp, #63]
     e9c:	b94043e2 	ldr	w2, [sp, #64]
     ea0:	b94047e1 	ldr	w1, [sp, #68]
     ea4:	f94027e0 	ldr	x0, [sp, #72]
     ea8:	9400000c 	bl	ed8 <trace_vprintf>
/home/hfut/phytium-pi-os/output/build/phytium-optee-v4.6.0/optee_os/lib/libutils/ext/trace.c:126
     eac:	d503201f 	nop
     eb0:	f0000120 	adrp	x0, 27000 <_DYNAMIC>
     eb4:	f9409800 	ldr	x0, [x0, #304]
     eb8:	f9403fe2 	ldr	x2, [sp, #120]
     ebc:	f9400001 	ldr	x1, [x0]
     ec0:	eb010042 	subs	x2, x2, x1
     ec4:	d2800001 	mov	x1, #0x0                   	// #0
     ec8:	54000040 	b.eq	ed0 <trace_printf+0xe8>  // b.none
     ecc:	97ffff60 	bl	c4c <__stack_chk_fail>
     ed0:	a8d27bfd 	ldp	x29, x30, [sp], #288
     ed4:	d65f03c0 	ret

0000000000000ed8 <trace_vprintf>:
trace_vprintf():
/home/hfut/phytium-pi-os/output/build/phytium-optee-v4.6.0/optee_os/lib/libutils/ext/trace.c:129
     ed8:	a9a87bfd 	stp	x29, x30, [sp, #-384]!
     edc:	910003fd 	mov	x29, sp
     ee0:	f9000bf3 	str	x19, [sp, #16]
     ee4:	f9002fe0 	str	x0, [sp, #88]
     ee8:	b90057e1 	str	w1, [sp, #84]
     eec:	b90053e2 	str	w2, [sp, #80]
     ef0:	39013fe3 	strb	w3, [sp, #79]
     ef4:	f90023e4 	str	x4, [sp, #64]
     ef8:	aa0503f3 	mov	x19, x5
     efc:	f0000120 	adrp	x0, 27000 <_DYNAMIC>
     f00:	f9409800 	ldr	x0, [x0, #304]
     f04:	f9400001 	ldr	x1, [x0]
     f08:	f900bfe1 	str	x1, [sp, #376]
     f0c:	d2800001 	mov	x1, #0x0                   	// #0
/home/hfut/phytium-pi-os/output/build/phytium-optee-v4.6.0/optee_os/lib/libutils/ext/trace.c:131
     f10:	f9003bff 	str	xzr, [sp, #112]
/home/hfut/phytium-pi-os/output/build/phytium-optee-v4.6.0/optee_os/lib/libutils/ext/trace.c:134
     f14:	39413fe0 	ldrb	w0, [sp, #79]
     f18:	7100001f 	cmp	w0, #0x0
     f1c:	540000e0 	b.eq	f38 <trace_vprintf+0x60>  // b.none
/home/hfut/phytium-pi-os/output/build/phytium-optee-v4.6.0/optee_os/lib/libutils/ext/trace.c:134 (discriminator 1)
     f20:	f0000120 	adrp	x0, 27000 <_DYNAMIC>
     f24:	f940a800 	ldr	x0, [x0, #336]
     f28:	b9400000 	ldr	w0, [x0]
     f2c:	b94053e1 	ldr	w1, [sp, #80]
     f30:	6b00003f 	cmp	w1, w0
     f34:	5400184c 	b.gt	123c <trace_vprintf+0x364>
/home/hfut/phytium-pi-os/output/build/phytium-optee-v4.6.0/optee_os/lib/libutils/ext/trace.c:139
     f38:	39413fe1 	ldrb	w1, [sp, #79]
     f3c:	b94053e0 	ldr	w0, [sp, #80]
     f40:	97ffff68 	bl	ce0 <trace_level_to_string>
     f44:	12001c00 	and	w0, w0, #0xff
/home/hfut/phytium-pi-os/output/build/phytium-optee-v4.6.0/optee_os/lib/libutils/ext/trace.c:138
     f48:	9101e3e4 	add	x4, sp, #0x78
     f4c:	2a0003e3 	mov	w3, w0
     f50:	b0000120 	adrp	x0, 25000 <__text_end+0x3a64>
     f54:	91138002 	add	x2, x0, #0x4e0
     f58:	d2802001 	mov	x1, #0x100                 	// #256
     f5c:	aa0403e0 	mov	x0, x4
     f60:	940000da 	bl	12c8 <snprintk>
     f64:	b9006fe0 	str	w0, [sp, #108]
/home/hfut/phytium-pi-os/output/build/phytium-optee-v4.6.0/optee_os/lib/libutils/ext/trace.c:140
     f68:	b9406fe0 	ldr	w0, [sp, #108]
     f6c:	7100001f 	cmp	w0, #0x0
     f70:	540016ab 	b.lt	1244 <trace_vprintf+0x36c>  // b.tstop
/home/hfut/phytium-pi-os/output/build/phytium-optee-v4.6.0/optee_os/lib/libutils/ext/trace.c:142
     f74:	b9806fe0 	ldrsw	x0, [sp, #108]
     f78:	f9403be1 	ldr	x1, [sp, #112]
     f7c:	8b000020 	add	x0, x1, x0
     f80:	f9003be0 	str	x0, [sp, #112]
/home/hfut/phytium-pi-os/output/build/phytium-optee-v4.6.0/optee_os/lib/libutils/ext/trace.c:145
     f84:	9101e3e1 	add	x1, sp, #0x78
     f88:	f9403be0 	ldr	x0, [sp, #112]
     f8c:	8b000024 	add	x4, x1, x0
     f90:	d2802001 	mov	x1, #0x100                 	// #256
     f94:	f9403be0 	ldr	x0, [sp, #112]
     f98:	cb000021 	sub	x1, x1, x0
     f9c:	f0000120 	adrp	x0, 27000 <_DYNAMIC>
     fa0:	f940b003 	ldr	x3, [x0, #352]
     fa4:	b0000120 	adrp	x0, 25000 <__text_end+0x3a64>
     fa8:	9113a002 	add	x2, x0, #0x4e8
     fac:	aa0403e0 	mov	x0, x4
     fb0:	940000c6 	bl	12c8 <snprintk>
     fb4:	b9006fe0 	str	w0, [sp, #108]
/home/hfut/phytium-pi-os/output/build/phytium-optee-v4.6.0/optee_os/lib/libutils/ext/trace.c:147
     fb8:	b9406fe0 	ldr	w0, [sp, #108]
     fbc:	7100001f 	cmp	w0, #0x0
     fc0:	5400146b 	b.lt	124c <trace_vprintf+0x374>  // b.tstop
/home/hfut/phytium-pi-os/output/build/phytium-optee-v4.6.0/optee_os/lib/libutils/ext/trace.c:149
     fc4:	b9806fe0 	ldrsw	x0, [sp, #108]
     fc8:	f9403be1 	ldr	x1, [sp, #112]
     fcc:	8b000020 	add	x0, x1, x0
     fd0:	f9003be0 	str	x0, [sp, #112]
/home/hfut/phytium-pi-os/output/build/phytium-optee-v4.6.0/optee_os/lib/libutils/ext/trace.c:151
     fd4:	39413fe0 	ldrb	w0, [sp, #79]
     fd8:	7100001f 	cmp	w0, #0x0
     fdc:	54000a40 	b.eq	1124 <trace_vprintf+0x24c>  // b.none
/home/hfut/phytium-pi-os/output/build/phytium-optee-v4.6.0/optee_os/lib/libutils/ext/trace.c:151 (discriminator 1)
     fe0:	b94053e0 	ldr	w0, [sp, #80]
     fe4:	52800341 	mov	w1, #0x1a                  	// #26
     fe8:	1ac02420 	lsr	w0, w1, w0
     fec:	12000000 	and	w0, w0, #0x1
     ff0:	7100001f 	cmp	w0, #0x0
     ff4:	54000980 	b.eq	1124 <trace_vprintf+0x24c>  // b.none
/home/hfut/phytium-pi-os/output/build/phytium-optee-v4.6.0/optee_os/lib/libutils/ext/trace.c:153
     ff8:	9101e3e1 	add	x1, sp, #0x78
     ffc:	f9403be0 	ldr	x0, [sp, #112]
    1000:	8b000022 	add	x2, x1, x0
    1004:	d2802001 	mov	x1, #0x100                 	// #256
    1008:	f9403be0 	ldr	x0, [sp, #112]
    100c:	cb000020 	sub	x0, x1, x0
    1010:	aa0003e1 	mov	x1, x0
    1014:	aa0203e0 	mov	x0, x2
    1018:	97ffff6e 	bl	dd0 <print_guest_id>
    101c:	b9006fe0 	str	w0, [sp, #108]
/home/hfut/phytium-pi-os/output/build/phytium-optee-v4.6.0/optee_os/lib/libutils/ext/trace.c:154
    1020:	b9406fe0 	ldr	w0, [sp, #108]
    1024:	7100001f 	cmp	w0, #0x0
    1028:	5400116b 	b.lt	1254 <trace_vprintf+0x37c>  // b.tstop
/home/hfut/phytium-pi-os/output/build/phytium-optee-v4.6.0/optee_os/lib/libutils/ext/trace.c:156
    102c:	b9806fe0 	ldrsw	x0, [sp, #108]
    1030:	f9403be1 	ldr	x1, [sp, #112]
    1034:	8b000020 	add	x0, x1, x0
    1038:	f9003be0 	str	x0, [sp, #112]
/home/hfut/phytium-pi-os/output/build/phytium-optee-v4.6.0/optee_os/lib/libutils/ext/trace.c:159
    103c:	9101e3e1 	add	x1, sp, #0x78
    1040:	f9403be0 	ldr	x0, [sp, #112]
    1044:	8b000022 	add	x2, x1, x0
    1048:	d2802001 	mov	x1, #0x100                 	// #256
    104c:	f9403be0 	ldr	x0, [sp, #112]
    1050:	cb000020 	sub	x0, x1, x0
    1054:	aa0003e1 	mov	x1, x0
    1058:	aa0203e0 	mov	x0, x2
    105c:	97ffff57 	bl	db8 <print_core_id>
    1060:	b9006fe0 	str	w0, [sp, #108]
/home/hfut/phytium-pi-os/output/build/phytium-optee-v4.6.0/optee_os/lib/libutils/ext/trace.c:160
    1064:	b9406fe0 	ldr	w0, [sp, #108]
    1068:	7100001f 	cmp	w0, #0x0
    106c:	54000f8b 	b.lt	125c <trace_vprintf+0x384>  // b.tstop
/home/hfut/phytium-pi-os/output/build/phytium-optee-v4.6.0/optee_os/lib/libutils/ext/trace.c:162
    1070:	b9806fe0 	ldrsw	x0, [sp, #108]
    1074:	f9403be1 	ldr	x1, [sp, #112]
    1078:	8b000020 	add	x0, x1, x0
    107c:	f9003be0 	str	x0, [sp, #112]
/home/hfut/phytium-pi-os/output/build/phytium-optee-v4.6.0/optee_os/lib/libutils/ext/trace.c:165
    1080:	9101e3e1 	add	x1, sp, #0x78
    1084:	f9403be0 	ldr	x0, [sp, #112]
    1088:	8b000022 	add	x2, x1, x0
    108c:	d2802001 	mov	x1, #0x100                 	// #256
    1090:	f9403be0 	ldr	x0, [sp, #112]
    1094:	cb000020 	sub	x0, x1, x0
    1098:	aa0003e1 	mov	x1, x0
    109c:	aa0203e0 	mov	x0, x2
    10a0:	97ffff29 	bl	d44 <print_thread_id>
    10a4:	b9006fe0 	str	w0, [sp, #108]
/home/hfut/phytium-pi-os/output/build/phytium-optee-v4.6.0/optee_os/lib/libutils/ext/trace.c:166
    10a8:	b9406fe0 	ldr	w0, [sp, #108]
    10ac:	7100001f 	cmp	w0, #0x0
    10b0:	54000dab 	b.lt	1264 <trace_vprintf+0x38c>  // b.tstop
/home/hfut/phytium-pi-os/output/build/phytium-optee-v4.6.0/optee_os/lib/libutils/ext/trace.c:168
    10b4:	b9806fe0 	ldrsw	x0, [sp, #108]
    10b8:	f9403be1 	ldr	x1, [sp, #112]
    10bc:	8b000020 	add	x0, x1, x0
    10c0:	f9003be0 	str	x0, [sp, #112]
/home/hfut/phytium-pi-os/output/build/phytium-optee-v4.6.0/optee_os/lib/libutils/ext/trace.c:170
    10c4:	f9402fe0 	ldr	x0, [sp, #88]
    10c8:	f100001f 	cmp	x0, #0x0
    10cc:	54000440 	b.eq	1154 <trace_vprintf+0x27c>  // b.none
/home/hfut/phytium-pi-os/output/build/phytium-optee-v4.6.0/optee_os/lib/libutils/ext/trace.c:171
    10d0:	9101e3e1 	add	x1, sp, #0x78
    10d4:	f9403be0 	ldr	x0, [sp, #112]
    10d8:	8b000025 	add	x5, x1, x0
    10dc:	d2802001 	mov	x1, #0x100                 	// #256
    10e0:	f9403be0 	ldr	x0, [sp, #112]
    10e4:	cb000021 	sub	x1, x1, x0
    10e8:	b94057e4 	ldr	w4, [sp, #84]
    10ec:	f9402fe3 	ldr	x3, [sp, #88]
    10f0:	90000120 	adrp	x0, 25000 <__text_end+0x3a64>
    10f4:	9113c002 	add	x2, x0, #0x4f0
    10f8:	aa0503e0 	mov	x0, x5
    10fc:	94000073 	bl	12c8 <snprintk>
    1100:	b9006fe0 	str	w0, [sp, #108]
/home/hfut/phytium-pi-os/output/build/phytium-optee-v4.6.0/optee_os/lib/libutils/ext/trace.c:173
    1104:	b9406fe0 	ldr	w0, [sp, #108]
    1108:	7100001f 	cmp	w0, #0x0
    110c:	54000b0b 	b.lt	126c <trace_vprintf+0x394>  // b.tstop
/home/hfut/phytium-pi-os/output/build/phytium-optee-v4.6.0/optee_os/lib/libutils/ext/trace.c:175
    1110:	b9806fe0 	ldrsw	x0, [sp, #108]
    1114:	f9403be1 	ldr	x1, [sp, #112]
    1118:	8b000020 	add	x0, x1, x0
    111c:	f9003be0 	str	x0, [sp, #112]
/home/hfut/phytium-pi-os/output/build/phytium-optee-v4.6.0/optee_os/lib/libutils/ext/trace.c:170
    1120:	1400000d 	b	1154 <trace_vprintf+0x27c>
/home/hfut/phytium-pi-os/output/build/phytium-optee-v4.6.0/optee_os/lib/libutils/ext/trace.c:179
    1124:	f9403be0 	ldr	x0, [sp, #112]
    1128:	f103f81f 	cmp	x0, #0xfe
    112c:	54000a48 	b.hi	1274 <trace_vprintf+0x39c>  // b.pmore
/home/hfut/phytium-pi-os/output/build/phytium-optee-v4.6.0/optee_os/lib/libutils/ext/trace.c:181
    1130:	f9403be0 	ldr	x0, [sp, #112]
    1134:	91000401 	add	x1, x0, #0x1
    1138:	f9003be1 	str	x1, [sp, #112]
    113c:	9101e3e1 	add	x1, sp, #0x78
    1140:	52800402 	mov	w2, #0x20                  	// #32
    1144:	38206822 	strb	w2, [x1, x0]
/home/hfut/phytium-pi-os/output/build/phytium-optee-v4.6.0/optee_os/lib/libutils/ext/trace.c:182
    1148:	f9403be0 	ldr	x0, [sp, #112]
    114c:	9101e3e1 	add	x1, sp, #0x78
    1150:	3820683f 	strb	wzr, [x1, x0]
/home/hfut/phytium-pi-os/output/build/phytium-optee-v4.6.0/optee_os/lib/libutils/ext/trace.c:185
    1154:	9101e3e1 	add	x1, sp, #0x78
    1158:	f9403be0 	ldr	x0, [sp, #112]
    115c:	8b000024 	add	x4, x1, x0
    1160:	d2802001 	mov	x1, #0x100                 	// #256
    1164:	f9403be0 	ldr	x0, [sp, #112]
    1168:	cb000021 	sub	x1, x1, x0
    116c:	f9400260 	ldr	x0, [x19]
    1170:	f90013e0 	str	x0, [sp, #32]
    1174:	f9400660 	ldr	x0, [x19, #8]
    1178:	f90017e0 	str	x0, [sp, #40]
    117c:	f9400a60 	ldr	x0, [x19, #16]
    1180:	f9001be0 	str	x0, [sp, #48]
    1184:	f9400e60 	ldr	x0, [x19, #24]
    1188:	f9001fe0 	str	x0, [sp, #56]
    118c:	910083e0 	add	x0, sp, #0x20
    1190:	aa0003e3 	mov	x3, x0
    1194:	f94023e2 	ldr	x2, [sp, #64]
    1198:	aa0403e0 	mov	x0, x4
    119c:	94000088 	bl	13bc <vsnprintk>
    11a0:	b9006fe0 	str	w0, [sp, #108]
/home/hfut/phytium-pi-os/output/build/phytium-optee-v4.6.0/optee_os/lib/libutils/ext/trace.c:186
    11a4:	b9406fe0 	ldr	w0, [sp, #108]
    11a8:	7100001f 	cmp	w0, #0x0
    11ac:	540000ad 	b.le	11c0 <trace_vprintf+0x2e8>
/home/hfut/phytium-pi-os/output/build/phytium-optee-v4.6.0/optee_os/lib/libutils/ext/trace.c:187
    11b0:	b9806fe0 	ldrsw	x0, [sp, #108]
    11b4:	f9403be1 	ldr	x1, [sp, #112]
    11b8:	8b000020 	add	x0, x1, x0
    11bc:	f9003be0 	str	x0, [sp, #112]
/home/hfut/phytium-pi-os/output/build/phytium-optee-v4.6.0/optee_os/lib/libutils/ext/trace.c:189
    11c0:	f9403be0 	ldr	x0, [sp, #112]
    11c4:	f103f81f 	cmp	x0, #0xfe
    11c8:	54000069 	b.ls	11d4 <trace_vprintf+0x2fc>  // b.plast
/home/hfut/phytium-pi-os/output/build/phytium-optee-v4.6.0/optee_os/lib/libutils/ext/trace.c:190
    11cc:	d2801fc0 	mov	x0, #0xfe                  	// #254
    11d0:	f9003be0 	str	x0, [sp, #112]
/home/hfut/phytium-pi-os/output/build/phytium-optee-v4.6.0/optee_os/lib/libutils/ext/trace.c:192
    11d4:	f9403be0 	ldr	x0, [sp, #112]
    11d8:	9101e3e1 	add	x1, sp, #0x78
    11dc:	52800142 	mov	w2, #0xa                   	// #10
    11e0:	38206822 	strb	w2, [x1, x0]
/home/hfut/phytium-pi-os/output/build/phytium-optee-v4.6.0/optee_os/lib/libutils/ext/trace.c:193
    11e4:	14000004 	b	11f4 <trace_vprintf+0x31c>
/home/hfut/phytium-pi-os/output/build/phytium-optee-v4.6.0/optee_os/lib/libutils/ext/trace.c:194
    11e8:	f9403be0 	ldr	x0, [sp, #112]
    11ec:	d1000400 	sub	x0, x0, #0x1
    11f0:	f9003be0 	str	x0, [sp, #112]
/home/hfut/phytium-pi-os/output/build/phytium-optee-v4.6.0/optee_os/lib/libutils/ext/trace.c:193
    11f4:	f9403be0 	ldr	x0, [sp, #112]
    11f8:	f100001f 	cmp	x0, #0x0
    11fc:	540000c0 	b.eq	1214 <trace_vprintf+0x33c>  // b.none
/home/hfut/phytium-pi-os/output/build/phytium-optee-v4.6.0/optee_os/lib/libutils/ext/trace.c:193 (discriminator 1)
    1200:	f9403be0 	ldr	x0, [sp, #112]
    1204:	9101e3e1 	add	x1, sp, #0x78
    1208:	38606820 	ldrb	w0, [x1, x0]
    120c:	7100281f 	cmp	w0, #0xa
    1210:	54fffec0 	b.eq	11e8 <trace_vprintf+0x310>  // b.none
/home/hfut/phytium-pi-os/output/build/phytium-optee-v4.6.0/optee_os/lib/libutils/ext/trace.c:195
    1214:	f9403be0 	ldr	x0, [sp, #112]
    1218:	91000400 	add	x0, x0, #0x1
    121c:	f9003be0 	str	x0, [sp, #112]
/home/hfut/phytium-pi-os/output/build/phytium-optee-v4.6.0/optee_os/lib/libutils/ext/trace.c:196
    1220:	f9403be0 	ldr	x0, [sp, #112]
    1224:	91000400 	add	x0, x0, #0x1
    1228:	9101e3e1 	add	x1, sp, #0x78
    122c:	3820683f 	strb	wzr, [x1, x0]
/home/hfut/phytium-pi-os/output/build/phytium-optee-v4.6.0/optee_os/lib/libutils/ext/trace.c:198
    1230:	9101e3e0 	add	x0, sp, #0x78
    1234:	940008cc 	bl	3564 <trace_ext_puts>
    1238:	14000010 	b	1278 <trace_vprintf+0x3a0>
/home/hfut/phytium-pi-os/output/build/phytium-optee-v4.6.0/optee_os/lib/libutils/ext/trace.c:135
    123c:	d503201f 	nop
    1240:	1400000e 	b	1278 <trace_vprintf+0x3a0>
/home/hfut/phytium-pi-os/output/build/phytium-optee-v4.6.0/optee_os/lib/libutils/ext/trace.c:141
    1244:	d503201f 	nop
    1248:	1400000c 	b	1278 <trace_vprintf+0x3a0>
/home/hfut/phytium-pi-os/output/build/phytium-optee-v4.6.0/optee_os/lib/libutils/ext/trace.c:148
    124c:	d503201f 	nop
    1250:	1400000a 	b	1278 <trace_vprintf+0x3a0>
/home/hfut/phytium-pi-os/output/build/phytium-optee-v4.6.0/optee_os/lib/libutils/ext/trace.c:155
    1254:	d503201f 	nop
    1258:	14000008 	b	1278 <trace_vprintf+0x3a0>
/home/hfut/phytium-pi-os/output/build/phytium-optee-v4.6.0/optee_os/lib/libutils/ext/trace.c:161
    125c:	d503201f 	nop
    1260:	14000006 	b	1278 <trace_vprintf+0x3a0>
/home/hfut/phytium-pi-os/output/build/phytium-optee-v4.6.0/optee_os/lib/libutils/ext/trace.c:167
    1264:	d503201f 	nop
    1268:	14000004 	b	1278 <trace_vprintf+0x3a0>
/home/hfut/phytium-pi-os/output/build/phytium-optee-v4.6.0/optee_os/lib/libutils/ext/trace.c:174
    126c:	d503201f 	nop
    1270:	14000002 	b	1278 <trace_vprintf+0x3a0>
/home/hfut/phytium-pi-os/output/build/phytium-optee-v4.6.0/optee_os/lib/libutils/ext/trace.c:180
    1274:	d503201f 	nop
/home/hfut/phytium-pi-os/output/build/phytium-optee-v4.6.0/optee_os/lib/libutils/ext/trace.c:199
    1278:	d0000120 	adrp	x0, 27000 <_DYNAMIC>
    127c:	f9409800 	ldr	x0, [x0, #304]
    1280:	f940bfe2 	ldr	x2, [sp, #376]
    1284:	f9400001 	ldr	x1, [x0]
    1288:	eb010042 	subs	x2, x2, x1
    128c:	d2800001 	mov	x1, #0x0                   	// #0
    1290:	54000040 	b.eq	1298 <trace_vprintf+0x3c0>  // b.none
    1294:	97fffe6e 	bl	c4c <__stack_chk_fail>
    1298:	f9400bf3 	ldr	x19, [sp, #16]
    129c:	a8d87bfd 	ldp	x29, x30, [sp], #384
    12a0:	d65f03c0 	ret

00000000000012a4 <dhex_dump>:
dhex_dump():
/home/hfut/phytium-pi-os/output/build/phytium-optee-v4.6.0/optee_os/lib/libutils/ext/trace.c:308
    12a4:	d10083ff 	sub	sp, sp, #0x20
    12a8:	f9000fe0 	str	x0, [sp, #24]
    12ac:	b90017e1 	str	w1, [sp, #20]
    12b0:	b90013e2 	str	w2, [sp, #16]
    12b4:	f90007e3 	str	x3, [sp, #8]
    12b8:	b90007e4 	str	w4, [sp, #4]
/home/hfut/phytium-pi-os/output/build/phytium-optee-v4.6.0/optee_os/lib/libutils/ext/trace.c:309
    12bc:	d503201f 	nop
    12c0:	910083ff 	add	sp, sp, #0x20
    12c4:	d65f03c0 	ret

00000000000012c8 <snprintk>:
snprintk():
/home/hfut/phytium-pi-os/output/build/phytium-optee-v4.6.0/optee_os/lib/libutils/ext/snprintk.c:113
    12c8:	a9ad7bfd 	stp	x29, x30, [sp, #-304]!
    12cc:	910003fd 	mov	x29, sp
    12d0:	f90027e0 	str	x0, [sp, #72]
    12d4:	f90023e1 	str	x1, [sp, #64]
    12d8:	f9001fe2 	str	x2, [sp, #56]
    12dc:	f90087e3 	str	x3, [sp, #264]
    12e0:	f9008be4 	str	x4, [sp, #272]
    12e4:	f9008fe5 	str	x5, [sp, #280]
    12e8:	f90093e6 	str	x6, [sp, #288]
    12ec:	f90097e7 	str	x7, [sp, #296]
    12f0:	3d8023e0 	str	q0, [sp, #128]
    12f4:	3d8027e1 	str	q1, [sp, #144]
    12f8:	3d802be2 	str	q2, [sp, #160]
    12fc:	3d802fe3 	str	q3, [sp, #176]
    1300:	3d8033e4 	str	q4, [sp, #192]
    1304:	3d8037e5 	str	q5, [sp, #208]
    1308:	3d803be6 	str	q6, [sp, #224]
    130c:	3d803fe7 	str	q7, [sp, #240]
    1310:	d0000120 	adrp	x0, 27000 <_DYNAMIC>
    1314:	f9409800 	ldr	x0, [x0, #304]
    1318:	f9400001 	ldr	x1, [x0]
    131c:	f9003fe1 	str	x1, [sp, #120]
    1320:	d2800001 	mov	x1, #0x0                   	// #0
/home/hfut/phytium-pi-os/output/build/phytium-optee-v4.6.0/optee_os/lib/libutils/ext/snprintk.c:117
    1324:	9104c3e0 	add	x0, sp, #0x130
    1328:	f9002fe0 	str	x0, [sp, #88]
    132c:	9104c3e0 	add	x0, sp, #0x130
    1330:	f90033e0 	str	x0, [sp, #96]
    1334:	910403e0 	add	x0, sp, #0x100
    1338:	f90037e0 	str	x0, [sp, #104]
    133c:	128004e0 	mov	w0, #0xffffffd8            	// #-40
    1340:	b90073e0 	str	w0, [sp, #112]
    1344:	12800fe0 	mov	w0, #0xffffff80            	// #-128
    1348:	b90077e0 	str	w0, [sp, #116]
/home/hfut/phytium-pi-os/output/build/phytium-optee-v4.6.0/optee_os/lib/libutils/ext/snprintk.c:118
    134c:	f9402fe0 	ldr	x0, [sp, #88]
    1350:	f9000be0 	str	x0, [sp, #16]
    1354:	f94033e0 	ldr	x0, [sp, #96]
    1358:	f9000fe0 	str	x0, [sp, #24]
    135c:	f94037e0 	ldr	x0, [sp, #104]
    1360:	f90013e0 	str	x0, [sp, #32]
    1364:	f9403be0 	ldr	x0, [sp, #112]
    1368:	f90017e0 	str	x0, [sp, #40]
    136c:	910043e0 	add	x0, sp, #0x10
    1370:	aa0003e3 	mov	x3, x0
    1374:	f9401fe2 	ldr	x2, [sp, #56]
    1378:	f94023e1 	ldr	x1, [sp, #64]
    137c:	f94027e0 	ldr	x0, [sp, #72]
    1380:	9400000f 	bl	13bc <vsnprintk>
    1384:	b90057e0 	str	w0, [sp, #84]
/home/hfut/phytium-pi-os/output/build/phytium-optee-v4.6.0/optee_os/lib/libutils/ext/snprintk.c:121
    1388:	b94057e0 	ldr	w0, [sp, #84]
    138c:	2a0003e1 	mov	w1, w0
/home/hfut/phytium-pi-os/output/build/phytium-optee-v4.6.0/optee_os/lib/libutils/ext/snprintk.c:122
    1390:	d0000120 	adrp	x0, 27000 <_DYNAMIC>
    1394:	f9409800 	ldr	x0, [x0, #304]
    1398:	f9403fe3 	ldr	x3, [sp, #120]
    139c:	f9400002 	ldr	x2, [x0]
    13a0:	eb020063 	subs	x3, x3, x2
    13a4:	d2800002 	mov	x2, #0x0                   	// #0
    13a8:	54000040 	b.eq	13b0 <snprintk+0xe8>  // b.none
    13ac:	97fffe28 	bl	c4c <__stack_chk_fail>
    13b0:	2a0103e0 	mov	w0, w1
    13b4:	a8d37bfd 	ldp	x29, x30, [sp], #304
    13b8:	d65f03c0 	ret

00000000000013bc <vsnprintk>:
vsnprintk():
/home/hfut/phytium-pi-os/output/build/phytium-optee-v4.6.0/optee_os/lib/libutils/ext/snprintk.c:130
    13bc:	a9ba7bfd 	stp	x29, x30, [sp, #-96]!
    13c0:	910003fd 	mov	x29, sp
    13c4:	f9000bf3 	str	x19, [sp, #16]
    13c8:	f9002fe0 	str	x0, [sp, #88]
    13cc:	f9002be1 	str	x1, [sp, #80]
    13d0:	f90027e2 	str	x2, [sp, #72]
    13d4:	aa0303f3 	mov	x19, x3
/home/hfut/phytium-pi-os/output/build/phytium-optee-v4.6.0/optee_os/lib/libutils/ext/snprintk.c:131
    13d8:	f9400260 	ldr	x0, [x19]
    13dc:	f90013e0 	str	x0, [sp, #32]
    13e0:	f9400660 	ldr	x0, [x19, #8]
    13e4:	f90017e0 	str	x0, [sp, #40]
    13e8:	f9400a60 	ldr	x0, [x19, #16]
    13ec:	f9001be0 	str	x0, [sp, #48]
    13f0:	f9400e60 	ldr	x0, [x19, #24]
    13f4:	f9001fe0 	str	x0, [sp, #56]
    13f8:	910083e0 	add	x0, sp, #0x20
    13fc:	52800024 	mov	w4, #0x1                   	// #1
    1400:	aa0003e3 	mov	x3, x0
    1404:	f94027e2 	ldr	x2, [sp, #72]
    1408:	f9402be1 	ldr	x1, [sp, #80]
    140c:	f9402fe0 	ldr	x0, [sp, #88]
    1410:	94000004 	bl	1420 <__vsnprintf>
/home/hfut/phytium-pi-os/output/build/phytium-optee-v4.6.0/optee_os/lib/libutils/ext/snprintk.c:132
    1414:	f9400bf3 	ldr	x19, [sp, #16]
    1418:	a8c67bfd 	ldp	x29, x30, [sp], #96
    141c:	d65f03c0 	ret

0000000000001420 <__vsnprintf>:
__vsnprintf():
/home/hfut/phytium-pi-os/output/build/phytium-optee-v4.6.0/optee_os/lib/libutils/ext/snprintk.c:138
    1420:	a9b87bfd 	stp	x29, x30, [sp, #-128]!
    1424:	910003fd 	mov	x29, sp
    1428:	f9000bf3 	str	x19, [sp, #16]
    142c:	f9002fe0 	str	x0, [sp, #88]
    1430:	f9002be1 	str	x1, [sp, #80]
    1434:	f90027e2 	str	x2, [sp, #72]
    1438:	aa0303f3 	mov	x19, x3
    143c:	39011fe4 	strb	w4, [sp, #71]
    1440:	d0000120 	adrp	x0, 27000 <_DYNAMIC>
    1444:	f9409800 	ldr	x0, [x0, #304]
    1448:	f9400001 	ldr	x1, [x0]
    144c:	f9003fe1 	str	x1, [sp, #120]
    1450:	d2800001 	mov	x1, #0x0                   	// #0
/home/hfut/phytium-pi-os/output/build/phytium-optee-v4.6.0/optee_os/lib/libutils/ext/snprintk.c:142
    1454:	f9402fe1 	ldr	x1, [sp, #88]
    1458:	f9402be0 	ldr	x0, [sp, #80]
    145c:	8b000020 	add	x0, x1, x0
    1460:	f9003be0 	str	x0, [sp, #112]
/home/hfut/phytium-pi-os/output/build/phytium-optee-v4.6.0/optee_os/lib/libutils/ext/snprintk.c:143
    1464:	f9400260 	ldr	x0, [x19]
    1468:	f90013e0 	str	x0, [sp, #32]
    146c:	f9400660 	ldr	x0, [x19, #8]
    1470:	f90017e0 	str	x0, [sp, #40]
    1474:	f9400a60 	ldr	x0, [x19, #16]
    1478:	f9001be0 	str	x0, [sp, #48]
    147c:	f9400e60 	ldr	x0, [x19, #24]
    1480:	f9001fe0 	str	x0, [sp, #56]
    1484:	910083e1 	add	x1, sp, #0x20
    1488:	9101c3e0 	add	x0, sp, #0x70
    148c:	39411fe5 	ldrb	w5, [sp, #71]
    1490:	aa0103e4 	mov	x4, x1
    1494:	f9402fe3 	ldr	x3, [sp, #88]
    1498:	aa0003e2 	mov	x2, x0
    149c:	52800101 	mov	w1, #0x8                   	// #8
    14a0:	f94027e0 	ldr	x0, [sp, #72]
    14a4:	94000076 	bl	167c <kprintf>
    14a8:	b9006fe0 	str	w0, [sp, #108]
/home/hfut/phytium-pi-os/output/build/phytium-optee-v4.6.0/optee_os/lib/libutils/ext/snprintk.c:144
    14ac:	f9402fe0 	ldr	x0, [sp, #88]
    14b0:	f100001f 	cmp	x0, #0x0
    14b4:	54000240 	b.eq	14fc <__vsnprintf+0xdc>  // b.none
/home/hfut/phytium-pi-os/output/build/phytium-optee-v4.6.0/optee_os/lib/libutils/ext/snprintk.c:144 (discriminator 1)
    14b8:	f9402be0 	ldr	x0, [sp, #80]
    14bc:	f100001f 	cmp	x0, #0x0
    14c0:	540001e0 	b.eq	14fc <__vsnprintf+0xdc>  // b.none
/home/hfut/phytium-pi-os/output/build/phytium-optee-v4.6.0/optee_os/lib/libutils/ext/snprintk.c:146
    14c4:	b9806fe0 	ldrsw	x0, [sp, #108]
    14c8:	f9402be1 	ldr	x1, [sp, #80]
    14cc:	eb00003f 	cmp	x1, x0
    14d0:	540000e8 	b.hi	14ec <__vsnprintf+0xcc>  // b.pmore
/home/hfut/phytium-pi-os/output/build/phytium-optee-v4.6.0/optee_os/lib/libutils/ext/snprintk.c:147
    14d4:	f9402be0 	ldr	x0, [sp, #80]
    14d8:	d1000400 	sub	x0, x0, #0x1
    14dc:	f9402fe1 	ldr	x1, [sp, #88]
    14e0:	8b000020 	add	x0, x1, x0
    14e4:	3900001f 	strb	wzr, [x0]
    14e8:	14000005 	b	14fc <__vsnprintf+0xdc>
/home/hfut/phytium-pi-os/output/build/phytium-optee-v4.6.0/optee_os/lib/libutils/ext/snprintk.c:149
    14ec:	b9806fe0 	ldrsw	x0, [sp, #108]
    14f0:	f9402fe1 	ldr	x1, [sp, #88]
    14f4:	8b000020 	add	x0, x1, x0
    14f8:	3900001f 	strb	wzr, [x0]
/home/hfut/phytium-pi-os/output/build/phytium-optee-v4.6.0/optee_os/lib/libutils/ext/snprintk.c:151
    14fc:	b9406fe0 	ldr	w0, [sp, #108]
    1500:	2a0003e1 	mov	w1, w0
/home/hfut/phytium-pi-os/output/build/phytium-optee-v4.6.0/optee_os/lib/libutils/ext/snprintk.c:152
    1504:	d0000120 	adrp	x0, 27000 <_DYNAMIC>
    1508:	f9409800 	ldr	x0, [x0, #304]
    150c:	f9403fe3 	ldr	x3, [sp, #120]
    1510:	f9400002 	ldr	x2, [x0]
    1514:	eb020063 	subs	x3, x3, x2
    1518:	d2800002 	mov	x2, #0x0                   	// #0
    151c:	54000040 	b.eq	1524 <__vsnprintf+0x104>  // b.none
    1520:	97fffdcb 	bl	c4c <__stack_chk_fail>
    1524:	2a0103e0 	mov	w0, w1
    1528:	f9400bf3 	ldr	x19, [sp, #16]
    152c:	a8c87bfd 	ldp	x29, x30, [sp], #128
    1530:	d65f03c0 	ret

0000000000001534 <__vsprintf>:
__vsprintf():
/home/hfut/phytium-pi-os/output/build/phytium-optee-v4.6.0/optee_os/lib/libutils/ext/snprintk.c:155
    1534:	a9bb7bfd 	stp	x29, x30, [sp, #-80]!
    1538:	910003fd 	mov	x29, sp
    153c:	f9000bf3 	str	x19, [sp, #16]
    1540:	f90027e0 	str	x0, [sp, #72]
    1544:	f90023e1 	str	x1, [sp, #64]
    1548:	aa0203f3 	mov	x19, x2
/home/hfut/phytium-pi-os/output/build/phytium-optee-v4.6.0/optee_os/lib/libutils/ext/snprintk.c:156
    154c:	f9400260 	ldr	x0, [x19]
    1550:	f90013e0 	str	x0, [sp, #32]
    1554:	f9400660 	ldr	x0, [x19, #8]
    1558:	f90017e0 	str	x0, [sp, #40]
    155c:	f9400a60 	ldr	x0, [x19, #16]
    1560:	f9001be0 	str	x0, [sp, #48]
    1564:	f9400e60 	ldr	x0, [x19, #24]
    1568:	f9001fe0 	str	x0, [sp, #56]
    156c:	910083e0 	add	x0, sp, #0x20
    1570:	52800005 	mov	w5, #0x0                   	// #0
    1574:	aa0003e4 	mov	x4, x0
    1578:	f94027e3 	ldr	x3, [sp, #72]
    157c:	d2800002 	mov	x2, #0x0                   	// #0
    1580:	52800101 	mov	w1, #0x8                   	// #8
    1584:	f94023e0 	ldr	x0, [sp, #64]
    1588:	9400003d 	bl	167c <kprintf>
/home/hfut/phytium-pi-os/output/build/phytium-optee-v4.6.0/optee_os/lib/libutils/ext/snprintk.c:157
    158c:	f9400bf3 	ldr	x19, [sp, #16]
    1590:	a8c57bfd 	ldp	x29, x30, [sp], #80
    1594:	d65f03c0 	ret

0000000000001598 <uuid2str>:
uuid2str():
/home/hfut/phytium-pi-os/output/build/phytium-optee-v4.6.0/optee_os/lib/libutils/ext/snprintk.c:221
    1598:	d101c3ff 	sub	sp, sp, #0x70
    159c:	a9037bfd 	stp	x29, x30, [sp, #48]
    15a0:	9100c3fd 	add	x29, sp, #0x30
    15a4:	f9002fe0 	str	x0, [sp, #88]
    15a8:	f9002be1 	str	x1, [sp, #80]
    15ac:	f90027e2 	str	x2, [sp, #72]
/home/hfut/phytium-pi-os/output/build/phytium-optee-v4.6.0/optee_os/lib/libutils/ext/snprintk.c:227
    15b0:	f94027e0 	ldr	x0, [sp, #72]
    15b4:	f90037e0 	str	x0, [sp, #104]
/home/hfut/phytium-pi-os/output/build/phytium-optee-v4.6.0/optee_os/lib/libutils/ext/snprintk.c:229
    15b8:	f94037e0 	ldr	x0, [sp, #104]
    15bc:	b9400001 	ldr	w1, [x0]
/home/hfut/phytium-pi-os/output/build/phytium-optee-v4.6.0/optee_os/lib/libutils/ext/snprintk.c:231
    15c0:	f94037e0 	ldr	x0, [sp, #104]
    15c4:	79400800 	ldrh	w0, [x0, #4]
/home/hfut/phytium-pi-os/output/build/phytium-optee-v4.6.0/optee_os/lib/libutils/ext/snprintk.c:229
    15c8:	2a0003e8 	mov	w8, w0
/home/hfut/phytium-pi-os/output/build/phytium-optee-v4.6.0/optee_os/lib/libutils/ext/snprintk.c:231
    15cc:	f94037e0 	ldr	x0, [sp, #104]
    15d0:	79400c00 	ldrh	w0, [x0, #6]
/home/hfut/phytium-pi-os/output/build/phytium-optee-v4.6.0/optee_os/lib/libutils/ext/snprintk.c:229
    15d4:	2a0003e9 	mov	w9, w0
/home/hfut/phytium-pi-os/output/build/phytium-optee-v4.6.0/optee_os/lib/libutils/ext/snprintk.c:232
    15d8:	f94037e0 	ldr	x0, [sp, #104]
    15dc:	39402000 	ldrb	w0, [x0, #8]
/home/hfut/phytium-pi-os/output/build/phytium-optee-v4.6.0/optee_os/lib/libutils/ext/snprintk.c:229
    15e0:	2a0003ea 	mov	w10, w0
/home/hfut/phytium-pi-os/output/build/phytium-optee-v4.6.0/optee_os/lib/libutils/ext/snprintk.c:232
    15e4:	f94037e0 	ldr	x0, [sp, #104]
    15e8:	39402400 	ldrb	w0, [x0, #9]
/home/hfut/phytium-pi-os/output/build/phytium-optee-v4.6.0/optee_os/lib/libutils/ext/snprintk.c:229
    15ec:	2a0003e7 	mov	w7, w0
/home/hfut/phytium-pi-os/output/build/phytium-optee-v4.6.0/optee_os/lib/libutils/ext/snprintk.c:233
    15f0:	f94037e0 	ldr	x0, [sp, #104]
    15f4:	39402800 	ldrb	w0, [x0, #10]
/home/hfut/phytium-pi-os/output/build/phytium-optee-v4.6.0/optee_os/lib/libutils/ext/snprintk.c:229
    15f8:	2a0003e2 	mov	w2, w0
/home/hfut/phytium-pi-os/output/build/phytium-optee-v4.6.0/optee_os/lib/libutils/ext/snprintk.c:233
    15fc:	f94037e0 	ldr	x0, [sp, #104]
    1600:	39402c00 	ldrb	w0, [x0, #11]
/home/hfut/phytium-pi-os/output/build/phytium-optee-v4.6.0/optee_os/lib/libutils/ext/snprintk.c:229
    1604:	2a0003e3 	mov	w3, w0
/home/hfut/phytium-pi-os/output/build/phytium-optee-v4.6.0/optee_os/lib/libutils/ext/snprintk.c:234
    1608:	f94037e0 	ldr	x0, [sp, #104]
    160c:	39403000 	ldrb	w0, [x0, #12]
/home/hfut/phytium-pi-os/output/build/phytium-optee-v4.6.0/optee_os/lib/libutils/ext/snprintk.c:229
    1610:	2a0003e4 	mov	w4, w0
/home/hfut/phytium-pi-os/output/build/phytium-optee-v4.6.0/optee_os/lib/libutils/ext/snprintk.c:234
    1614:	f94037e0 	ldr	x0, [sp, #104]
    1618:	39403400 	ldrb	w0, [x0, #13]
/home/hfut/phytium-pi-os/output/build/phytium-optee-v4.6.0/optee_os/lib/libutils/ext/snprintk.c:229
    161c:	2a0003e5 	mov	w5, w0
/home/hfut/phytium-pi-os/output/build/phytium-optee-v4.6.0/optee_os/lib/libutils/ext/snprintk.c:235
    1620:	f94037e0 	ldr	x0, [sp, #104]
    1624:	39403800 	ldrb	w0, [x0, #14]
/home/hfut/phytium-pi-os/output/build/phytium-optee-v4.6.0/optee_os/lib/libutils/ext/snprintk.c:229
    1628:	2a0003e6 	mov	w6, w0
/home/hfut/phytium-pi-os/output/build/phytium-optee-v4.6.0/optee_os/lib/libutils/ext/snprintk.c:235
    162c:	f94037e0 	ldr	x0, [sp, #104]
    1630:	39403c00 	ldrb	w0, [x0, #15]
/home/hfut/phytium-pi-os/output/build/phytium-optee-v4.6.0/optee_os/lib/libutils/ext/snprintk.c:229
    1634:	b9002be0 	str	w0, [sp, #40]
    1638:	b90023e6 	str	w6, [sp, #32]
    163c:	b9001be5 	str	w5, [sp, #24]
    1640:	b90013e4 	str	w4, [sp, #16]
    1644:	b9000be3 	str	w3, [sp, #8]
    1648:	b90003e2 	str	w2, [sp]
    164c:	2a0a03e6 	mov	w6, w10
    1650:	2a0903e5 	mov	w5, w9
    1654:	2a0803e4 	mov	w4, w8
    1658:	2a0103e3 	mov	w3, w1
    165c:	90000120 	adrp	x0, 25000 <__text_end+0x3a64>
    1660:	9114c002 	add	x2, x0, #0x530
    1664:	f9402be1 	ldr	x1, [sp, #80]
    1668:	f9402fe0 	ldr	x0, [sp, #88]
    166c:	97ffff17 	bl	12c8 <snprintk>
/home/hfut/phytium-pi-os/output/build/phytium-optee-v4.6.0/optee_os/lib/libutils/ext/snprintk.c:236
    1670:	a9437bfd 	ldp	x29, x30, [sp, #48]
    1674:	9101c3ff 	add	sp, sp, #0x70
    1678:	d65f03c0 	ret

000000000000167c <kprintf>:
kprintf():
/home/hfut/phytium-pi-os/output/build/phytium-optee-v4.6.0/optee_os/lib/libutils/ext/snprintk.c:244
    167c:	a9b37bfd 	stp	x29, x30, [sp, #-208]!
    1680:	910003fd 	mov	x29, sp
    1684:	f9000bf3 	str	x19, [sp, #16]
    1688:	f9001fe0 	str	x0, [sp, #56]
    168c:	b90037e1 	str	w1, [sp, #52]
    1690:	f90017e2 	str	x2, [sp, #40]
    1694:	f90013e3 	str	x3, [sp, #32]
    1698:	aa0403f3 	mov	x19, x4
    169c:	3900cfe5 	strb	w5, [sp, #51]
    16a0:	d0000120 	adrp	x0, 27000 <_DYNAMIC>
    16a4:	f9409800 	ldr	x0, [x0, #304]
    16a8:	f9400001 	ldr	x1, [x0]
    16ac:	f90067e1 	str	x1, [sp, #200]
    16b0:	d2800001 	mov	x1, #0x0                   	// #0
/home/hfut/phytium-pi-os/output/build/phytium-optee-v4.6.0/optee_os/lib/libutils/ext/snprintk.c:264
    16b4:	b94037e0 	ldr	w0, [sp, #52]
    16b8:	7100201f 	cmp	w0, #0x8
    16bc:	54000101 	b.ne	16dc <kprintf+0x60>  // b.any
/home/hfut/phytium-pi-os/output/build/phytium-optee-v4.6.0/optee_os/lib/libutils/ext/snprintk.c:264 (discriminator 1)
    16c0:	f94017e0 	ldr	x0, [sp, #40]
    16c4:	f100001f 	cmp	x0, #0x0
    16c8:	540000a0 	b.eq	16dc <kprintf+0x60>  // b.none
/home/hfut/phytium-pi-os/output/build/phytium-optee-v4.6.0/optee_os/lib/libutils/ext/snprintk.c:265
    16cc:	f94017e0 	ldr	x0, [sp, #40]
    16d0:	f9400000 	ldr	x0, [x0]
    16d4:	f9004be0 	str	x0, [sp, #144]
    16d8:	14000002 	b	16e0 <kprintf+0x64>
/home/hfut/phytium-pi-os/output/build/phytium-optee-v4.6.0/optee_os/lib/libutils/ext/snprintk.c:267
    16dc:	f9004bff 	str	xzr, [sp, #144]
/home/hfut/phytium-pi-os/output/build/phytium-optee-v4.6.0/optee_os/lib/libutils/ext/snprintk.c:269
    16e0:	f9003fff 	str	xzr, [sp, #120]
/home/hfut/phytium-pi-os/output/build/phytium-optee-v4.6.0/optee_os/lib/libutils/ext/snprintk.c:270
    16e4:	b9006fff 	str	wzr, [sp, #108]
/home/hfut/phytium-pi-os/output/build/phytium-optee-v4.6.0/optee_os/lib/libutils/ext/snprintk.c:272
    16e8:	f9401fe0 	ldr	x0, [sp, #56]
    16ec:	f9003be0 	str	x0, [sp, #112]
/home/hfut/phytium-pi-os/output/build/phytium-optee-v4.6.0/optee_os/lib/libutils/ext/snprintk.c:273
    16f0:	b90057ff 	str	wzr, [sp, #84]
/home/hfut/phytium-pi-os/output/build/phytium-optee-v4.6.0/optee_os/lib/libutils/ext/snprintk.c:275
    16f4:	f90047ff 	str	xzr, [sp, #136]
/home/hfut/phytium-pi-os/output/build/phytium-optee-v4.6.0/optee_os/lib/libutils/ext/snprintk.c:281
    16f8:	1400001a 	b	1760 <kprintf+0xe4>
/home/hfut/phytium-pi-os/output/build/phytium-optee-v4.6.0/optee_os/lib/libutils/ext/snprintk.c:282
    16fc:	b94057e0 	ldr	w0, [sp, #84]
    1700:	11000400 	add	w0, w0, #0x1
    1704:	b90057e0 	str	w0, [sp, #84]
/home/hfut/phytium-pi-os/output/build/phytium-optee-v4.6.0/optee_os/lib/libutils/ext/snprintk.c:283
    1708:	b94037e0 	ldr	w0, [sp, #52]
    170c:	7100201f 	cmp	w0, #0x8
    1710:	54000221 	b.ne	1754 <kprintf+0xd8>  // b.any
/home/hfut/phytium-pi-os/output/build/phytium-optee-v4.6.0/optee_os/lib/libutils/ext/snprintk.c:283 (discriminator 1)
    1714:	f94013e0 	ldr	x0, [sp, #32]
    1718:	f100001f 	cmp	x0, #0x0
    171c:	540001c0 	b.eq	1754 <kprintf+0xd8>  // b.none
/home/hfut/phytium-pi-os/output/build/phytium-optee-v4.6.0/optee_os/lib/libutils/ext/snprintk.c:283 (discriminator 2)
    1720:	f94017e0 	ldr	x0, [sp, #40]
    1724:	f100001f 	cmp	x0, #0x0
    1728:	540000a0 	b.eq	173c <kprintf+0xc0>  // b.none
/home/hfut/phytium-pi-os/output/build/phytium-optee-v4.6.0/optee_os/lib/libutils/ext/snprintk.c:283 (discriminator 4)
    172c:	f94013e1 	ldr	x1, [sp, #32]
    1730:	f9404be0 	ldr	x0, [sp, #144]
    1734:	eb00003f 	cmp	x1, x0
    1738:	540000e2 	b.cs	1754 <kprintf+0xd8>  // b.hs, b.nlast
/home/hfut/phytium-pi-os/output/build/phytium-optee-v4.6.0/optee_os/lib/libutils/ext/snprintk.c:283 (discriminator 5)
    173c:	f94013e0 	ldr	x0, [sp, #32]
    1740:	91000401 	add	x1, x0, #0x1
    1744:	f90013e1 	str	x1, [sp, #32]
    1748:	f9403be1 	ldr	x1, [sp, #112]
    174c:	39400021 	ldrb	w1, [x1]
    1750:	39000001 	strb	w1, [x0]
/home/hfut/phytium-pi-os/output/build/phytium-optee-v4.6.0/optee_os/lib/libutils/ext/snprintk.c:281
    1754:	f9403be0 	ldr	x0, [sp, #112]
    1758:	91000400 	add	x0, x0, #0x1
    175c:	f9003be0 	str	x0, [sp, #112]
/home/hfut/phytium-pi-os/output/build/phytium-optee-v4.6.0/optee_os/lib/libutils/ext/snprintk.c:281 (discriminator 1)
    1760:	f9403be0 	ldr	x0, [sp, #112]
    1764:	39400000 	ldrb	w0, [x0]
    1768:	7100941f 	cmp	w0, #0x25
    176c:	540000a0 	b.eq	1780 <kprintf+0x104>  // b.none
/home/hfut/phytium-pi-os/output/build/phytium-optee-v4.6.0/optee_os/lib/libutils/ext/snprintk.c:281 (discriminator 2)
    1770:	f9403be0 	ldr	x0, [sp, #112]
    1774:	39400000 	ldrb	w0, [x0]
    1778:	7100001f 	cmp	w0, #0x0
    177c:	54fffc01 	b.ne	16fc <kprintf+0x80>  // b.any
/home/hfut/phytium-pi-os/output/build/phytium-optee-v4.6.0/optee_os/lib/libutils/ext/snprintk.c:285
    1780:	f9403be0 	ldr	x0, [sp, #112]
    1784:	39400000 	ldrb	w0, [x0]
    1788:	7100001f 	cmp	w0, #0x0
    178c:	5400d720 	b.eq	3270 <kprintf+0x1bf4>  // b.none
/home/hfut/phytium-pi-os/output/build/phytium-optee-v4.6.0/optee_os/lib/libutils/ext/snprintk.c:288
    1790:	f9403be0 	ldr	x0, [sp, #112]
    1794:	91000400 	add	x0, x0, #0x1
    1798:	f9003be0 	str	x0, [sp, #112]
/home/hfut/phytium-pi-os/output/build/phytium-optee-v4.6.0/optee_os/lib/libutils/ext/snprintk.c:290
    179c:	b90053ff 	str	wzr, [sp, #80]
/home/hfut/phytium-pi-os/output/build/phytium-optee-v4.6.0/optee_os/lib/libutils/ext/snprintk.c:291
    17a0:	b90067ff 	str	wzr, [sp, #100]
/home/hfut/phytium-pi-os/output/build/phytium-optee-v4.6.0/optee_os/lib/libutils/ext/snprintk.c:292
    17a4:	b9005bff 	str	wzr, [sp, #88]
/home/hfut/phytium-pi-os/output/build/phytium-optee-v4.6.0/optee_os/lib/libutils/ext/snprintk.c:293
    17a8:	12800000 	mov	w0, #0xffffffff            	// #-1
    17ac:	b9005fe0 	str	w0, [sp, #92]
/home/hfut/phytium-pi-os/output/build/phytium-optee-v4.6.0/optee_os/lib/libutils/ext/snprintk.c:294
    17b0:	39011fff 	strb	wzr, [sp, #71]
    17b4:	14000004 	b	17c4 <kprintf+0x148>
/home/hfut/phytium-pi-os/output/build/phytium-optee-v4.6.0/optee_os/lib/libutils/ext/snprintk.c:306
    17b8:	d503201f 	nop
    17bc:	14000002 	b	17c4 <kprintf+0x148>
/home/hfut/phytium-pi-os/output/build/phytium-optee-v4.6.0/optee_os/lib/libutils/ext/snprintk.c:318
    17c0:	d503201f 	nop
/home/hfut/phytium-pi-os/output/build/phytium-optee-v4.6.0/optee_os/lib/libutils/ext/snprintk.c:296
    17c4:	f9403be0 	ldr	x0, [sp, #112]
    17c8:	91000401 	add	x1, x0, #0x1
    17cc:	f9003be1 	str	x1, [sp, #112]
    17d0:	39400000 	ldrb	w0, [x0]
    17d4:	b9004be0 	str	w0, [sp, #72]
/home/hfut/phytium-pi-os/output/build/phytium-optee-v4.6.0/optee_os/lib/libutils/ext/snprintk.c:297
    17d8:	b9404be0 	ldr	w0, [sp, #72]
    17dc:	51008000 	sub	w0, w0, #0x20
    17e0:	7101681f 	cmp	w0, #0x5a
    17e4:	5400b408 	b.hi	2e64 <kprintf+0x17e8>  // b.pmore
    17e8:	90000121 	adrp	x1, 25000 <__text_end+0x3a64>
    17ec:	91163021 	add	x1, x1, #0x58c
    17f0:	b8605820 	ldr	w0, [x1, w0, uxtw #2]
    17f4:	10000061 	adr	x1, 1800 <kprintf+0x184>
    17f8:	8b20c820 	add	x0, x1, w0, sxtw #2
    17fc:	d61f0000 	br	x0
/home/hfut/phytium-pi-os/output/build/phytium-optee-v4.6.0/optee_os/lib/libutils/ext/snprintk.c:304
    1800:	39411fe0 	ldrb	w0, [sp, #71]
    1804:	7100001f 	cmp	w0, #0x0
    1808:	54fffd81 	b.ne	17b8 <kprintf+0x13c>  // b.any
/home/hfut/phytium-pi-os/output/build/phytium-optee-v4.6.0/optee_os/lib/libutils/ext/snprintk.c:305
    180c:	52800400 	mov	w0, #0x20                  	// #32
    1810:	39011fe0 	strb	w0, [sp, #71]
/home/hfut/phytium-pi-os/output/build/phytium-optee-v4.6.0/optee_os/lib/libutils/ext/snprintk.c:306
    1814:	17ffffe9 	b	17b8 <kprintf+0x13c>
/home/hfut/phytium-pi-os/output/build/phytium-optee-v4.6.0/optee_os/lib/libutils/ext/snprintk.c:308
    1818:	b94053e0 	ldr	w0, [sp, #80]
    181c:	32000000 	orr	w0, w0, #0x1
    1820:	b90053e0 	str	w0, [sp, #80]
/home/hfut/phytium-pi-os/output/build/phytium-optee-v4.6.0/optee_os/lib/libutils/ext/snprintk.c:309
    1824:	17ffffe8 	b	17c4 <kprintf+0x148>
/home/hfut/phytium-pi-os/output/build/phytium-optee-v4.6.0/optee_os/lib/libutils/ext/snprintk.c:317
    1828:	b9401a61 	ldr	w1, [x19, #24]
    182c:	f9400260 	ldr	x0, [x19]
    1830:	7100003f 	cmp	w1, #0x0
    1834:	540000ab 	b.lt	1848 <kprintf+0x1cc>  // b.tstop
    1838:	91002c01 	add	x1, x0, #0xb
    183c:	927df021 	and	x1, x1, #0xfffffffffffffff8
    1840:	f9000261 	str	x1, [x19]
    1844:	1400000d 	b	1878 <kprintf+0x1fc>
    1848:	11002022 	add	w2, w1, #0x8
    184c:	b9001a62 	str	w2, [x19, #24]
    1850:	b9401a62 	ldr	w2, [x19, #24]
    1854:	7100005f 	cmp	w2, #0x0
    1858:	540000ad 	b.le	186c <kprintf+0x1f0>
    185c:	91002c01 	add	x1, x0, #0xb
    1860:	927df021 	and	x1, x1, #0xfffffffffffffff8
    1864:	f9000261 	str	x1, [x19]
    1868:	14000004 	b	1878 <kprintf+0x1fc>
    186c:	f9400662 	ldr	x2, [x19, #8]
    1870:	93407c20 	sxtw	x0, w1
    1874:	8b000040 	add	x0, x2, x0
    1878:	b9400000 	ldr	w0, [x0]
    187c:	b9005be0 	str	w0, [sp, #88]
    1880:	b9405be0 	ldr	w0, [sp, #88]
    1884:	7100001f 	cmp	w0, #0x0
    1888:	54fff9ca 	b.ge	17c0 <kprintf+0x144>  // b.tcont
/home/hfut/phytium-pi-os/output/build/phytium-optee-v4.6.0/optee_os/lib/libutils/ext/snprintk.c:319
    188c:	b9405be0 	ldr	w0, [sp, #88]
    1890:	4b0003e0 	neg	w0, w0
    1894:	b9005be0 	str	w0, [sp, #88]
/home/hfut/phytium-pi-os/output/build/phytium-optee-v4.6.0/optee_os/lib/libutils/ext/snprintk.c:322
    1898:	b94053e0 	ldr	w0, [sp, #80]
    189c:	321e0000 	orr	w0, w0, #0x4
    18a0:	b90053e0 	str	w0, [sp, #80]
/home/hfut/phytium-pi-os/output/build/phytium-optee-v4.6.0/optee_os/lib/libutils/ext/snprintk.c:323
    18a4:	17ffffc8 	b	17c4 <kprintf+0x148>
/home/hfut/phytium-pi-os/output/build/phytium-optee-v4.6.0/optee_os/lib/libutils/ext/snprintk.c:325
    18a8:	52800560 	mov	w0, #0x2b                  	// #43
    18ac:	39011fe0 	strb	w0, [sp, #71]
/home/hfut/phytium-pi-os/output/build/phytium-optee-v4.6.0/optee_os/lib/libutils/ext/snprintk.c:326
    18b0:	17ffffc5 	b	17c4 <kprintf+0x148>
/home/hfut/phytium-pi-os/output/build/phytium-optee-v4.6.0/optee_os/lib/libutils/ext/snprintk.c:328
    18b4:	f9403be0 	ldr	x0, [sp, #112]
    18b8:	91000401 	add	x1, x0, #0x1
    18bc:	f9003be1 	str	x1, [sp, #112]
    18c0:	39400000 	ldrb	w0, [x0]
    18c4:	b9004be0 	str	w0, [sp, #72]
    18c8:	b9404be0 	ldr	w0, [sp, #72]
    18cc:	7100a81f 	cmp	w0, #0x2a
    18d0:	540003c1 	b.ne	1948 <kprintf+0x2cc>  // b.any
/home/hfut/phytium-pi-os/output/build/phytium-optee-v4.6.0/optee_os/lib/libutils/ext/snprintk.c:329
    18d4:	b9401a61 	ldr	w1, [x19, #24]
    18d8:	f9400260 	ldr	x0, [x19]
    18dc:	7100003f 	cmp	w1, #0x0
    18e0:	540000ab 	b.lt	18f4 <kprintf+0x278>  // b.tstop
    18e4:	91002c01 	add	x1, x0, #0xb
    18e8:	927df021 	and	x1, x1, #0xfffffffffffffff8
    18ec:	f9000261 	str	x1, [x19]
    18f0:	1400000d 	b	1924 <kprintf+0x2a8>
    18f4:	11002022 	add	w2, w1, #0x8
    18f8:	b9001a62 	str	w2, [x19, #24]
    18fc:	b9401a62 	ldr	w2, [x19, #24]
    1900:	7100005f 	cmp	w2, #0x0
    1904:	540000ad 	b.le	1918 <kprintf+0x29c>
    1908:	91002c01 	add	x1, x0, #0xb
    190c:	927df021 	and	x1, x1, #0xfffffffffffffff8
    1910:	f9000261 	str	x1, [x19]
    1914:	14000004 	b	1924 <kprintf+0x2a8>
    1918:	f9400662 	ldr	x2, [x19, #8]
    191c:	93407c20 	sxtw	x0, w1
    1920:	8b000040 	add	x0, x2, x0
    1924:	b9400000 	ldr	w0, [x0]
    1928:	b9004fe0 	str	w0, [sp, #76]
/home/hfut/phytium-pi-os/output/build/phytium-optee-v4.6.0/optee_os/lib/libutils/ext/snprintk.c:330
    192c:	b9404fe2 	ldr	w2, [sp, #76]
    1930:	b9404fe1 	ldr	w1, [sp, #76]
    1934:	12800000 	mov	w0, #0xffffffff            	// #-1
    1938:	7100005f 	cmp	w2, #0x0
    193c:	1a80a020 	csel	w0, w1, w0, ge	// ge = tcont
    1940:	b9005fe0 	str	w0, [sp, #92]
/home/hfut/phytium-pi-os/output/build/phytium-optee-v4.6.0/optee_os/lib/libutils/ext/snprintk.c:331
    1944:	17ffffa0 	b	17c4 <kprintf+0x148>
/home/hfut/phytium-pi-os/output/build/phytium-optee-v4.6.0/optee_os/lib/libutils/ext/snprintk.c:333
    1948:	b9004fff 	str	wzr, [sp, #76]
/home/hfut/phytium-pi-os/output/build/phytium-optee-v4.6.0/optee_os/lib/libutils/ext/snprintk.c:334
    194c:	1400000d 	b	1980 <kprintf+0x304>
/home/hfut/phytium-pi-os/output/build/phytium-optee-v4.6.0/optee_os/lib/libutils/ext/snprintk.c:335
    1950:	b9404fe1 	ldr	w1, [sp, #76]
    1954:	52800140 	mov	w0, #0xa                   	// #10
    1958:	1b007c21 	mul	w1, w1, w0
    195c:	b9404be0 	ldr	w0, [sp, #72]
    1960:	5100c000 	sub	w0, w0, #0x30
    1964:	0b000020 	add	w0, w1, w0
    1968:	b9004fe0 	str	w0, [sp, #76]
/home/hfut/phytium-pi-os/output/build/phytium-optee-v4.6.0/optee_os/lib/libutils/ext/snprintk.c:336
    196c:	f9403be0 	ldr	x0, [sp, #112]
    1970:	91000401 	add	x1, x0, #0x1
    1974:	f9003be1 	str	x1, [sp, #112]
    1978:	39400000 	ldrb	w0, [x0]
    197c:	b9004be0 	str	w0, [sp, #72]
/home/hfut/phytium-pi-os/output/build/phytium-optee-v4.6.0/optee_os/lib/libutils/ext/snprintk.c:334
    1980:	b9404be0 	ldr	w0, [sp, #72]
    1984:	5100c000 	sub	w0, w0, #0x30
    1988:	7100241f 	cmp	w0, #0x9
    198c:	54fffe29 	b.ls	1950 <kprintf+0x2d4>  // b.plast
/home/hfut/phytium-pi-os/output/build/phytium-optee-v4.6.0/optee_os/lib/libutils/ext/snprintk.c:338
    1990:	b9404fe2 	ldr	w2, [sp, #76]
    1994:	b9404fe1 	ldr	w1, [sp, #76]
    1998:	12800000 	mov	w0, #0xffffffff            	// #-1
    199c:	7100005f 	cmp	w2, #0x0
    19a0:	1a80a020 	csel	w0, w1, w0, ge	// ge = tcont
    19a4:	b9005fe0 	str	w0, [sp, #92]
/home/hfut/phytium-pi-os/output/build/phytium-optee-v4.6.0/optee_os/lib/libutils/ext/snprintk.c:339
    19a8:	17ffff8c 	b	17d8 <kprintf+0x15c>
/home/hfut/phytium-pi-os/output/build/phytium-optee-v4.6.0/optee_os/lib/libutils/ext/snprintk.c:346
    19ac:	b94053e0 	ldr	w0, [sp, #80]
    19b0:	32160000 	orr	w0, w0, #0x400
    19b4:	b90053e0 	str	w0, [sp, #80]
/home/hfut/phytium-pi-os/output/build/phytium-optee-v4.6.0/optee_os/lib/libutils/ext/snprintk.c:347
    19b8:	17ffff83 	b	17c4 <kprintf+0x148>
/home/hfut/phytium-pi-os/output/build/phytium-optee-v4.6.0/optee_os/lib/libutils/ext/snprintk.c:350
    19bc:	b9004fff 	str	wzr, [sp, #76]
/home/hfut/phytium-pi-os/output/build/phytium-optee-v4.6.0/optee_os/lib/libutils/ext/snprintk.c:352 (discriminator 1)
    19c0:	b9404fe1 	ldr	w1, [sp, #76]
    19c4:	52800140 	mov	w0, #0xa                   	// #10
    19c8:	1b007c21 	mul	w1, w1, w0
    19cc:	b9404be0 	ldr	w0, [sp, #72]
    19d0:	5100c000 	sub	w0, w0, #0x30
    19d4:	0b000020 	add	w0, w1, w0
    19d8:	b9004fe0 	str	w0, [sp, #76]
/home/hfut/phytium-pi-os/output/build/phytium-optee-v4.6.0/optee_os/lib/libutils/ext/snprintk.c:353 (discriminator 1)
    19dc:	f9403be0 	ldr	x0, [sp, #112]
    19e0:	91000401 	add	x1, x0, #0x1
    19e4:	f9003be1 	str	x1, [sp, #112]
    19e8:	39400000 	ldrb	w0, [x0]
    19ec:	b9004be0 	str	w0, [sp, #72]
/home/hfut/phytium-pi-os/output/build/phytium-optee-v4.6.0/optee_os/lib/libutils/ext/snprintk.c:354 (discriminator 1)
    19f0:	b9404be0 	ldr	w0, [sp, #72]
    19f4:	5100c000 	sub	w0, w0, #0x30
    19f8:	7100241f 	cmp	w0, #0x9
    19fc:	54fffe29 	b.ls	19c0 <kprintf+0x344>  // b.plast
/home/hfut/phytium-pi-os/output/build/phytium-optee-v4.6.0/optee_os/lib/libutils/ext/snprintk.c:355
    1a00:	b9404fe0 	ldr	w0, [sp, #76]
    1a04:	b9005be0 	str	w0, [sp, #88]
/home/hfut/phytium-pi-os/output/build/phytium-optee-v4.6.0/optee_os/lib/libutils/ext/snprintk.c:356
    1a08:	17ffff74 	b	17d8 <kprintf+0x15c>
/home/hfut/phytium-pi-os/output/build/phytium-optee-v4.6.0/optee_os/lib/libutils/ext/snprintk.c:358
    1a0c:	b94053e0 	ldr	w0, [sp, #80]
    1a10:	321a0000 	orr	w0, w0, #0x40
    1a14:	b90053e0 	str	w0, [sp, #80]
/home/hfut/phytium-pi-os/output/build/phytium-optee-v4.6.0/optee_os/lib/libutils/ext/snprintk.c:359
    1a18:	17ffff6b 	b	17c4 <kprintf+0x148>
/home/hfut/phytium-pi-os/output/build/phytium-optee-v4.6.0/optee_os/lib/libutils/ext/snprintk.c:361
    1a1c:	b94053e0 	ldr	w0, [sp, #80]
    1a20:	32190000 	orr	w0, w0, #0x80
    1a24:	b90053e0 	str	w0, [sp, #80]
/home/hfut/phytium-pi-os/output/build/phytium-optee-v4.6.0/optee_os/lib/libutils/ext/snprintk.c:362
    1a28:	17ffff67 	b	17c4 <kprintf+0x148>
/home/hfut/phytium-pi-os/output/build/phytium-optee-v4.6.0/optee_os/lib/libutils/ext/snprintk.c:364
    1a2c:	f9403be0 	ldr	x0, [sp, #112]
    1a30:	39400000 	ldrb	w0, [x0]
    1a34:	7101b01f 	cmp	w0, #0x6c
    1a38:	54000101 	b.ne	1a58 <kprintf+0x3dc>  // b.any
/home/hfut/phytium-pi-os/output/build/phytium-optee-v4.6.0/optee_os/lib/libutils/ext/snprintk.c:365
    1a3c:	f9403be0 	ldr	x0, [sp, #112]
    1a40:	91000400 	add	x0, x0, #0x1
    1a44:	f9003be0 	str	x0, [sp, #112]
/home/hfut/phytium-pi-os/output/build/phytium-optee-v4.6.0/optee_os/lib/libutils/ext/snprintk.c:366
    1a48:	b94053e0 	ldr	w0, [sp, #80]
    1a4c:	321b0000 	orr	w0, w0, #0x20
    1a50:	b90053e0 	str	w0, [sp, #80]
/home/hfut/phytium-pi-os/output/build/phytium-optee-v4.6.0/optee_os/lib/libutils/ext/snprintk.c:370
    1a54:	17ffff5c 	b	17c4 <kprintf+0x148>
/home/hfut/phytium-pi-os/output/build/phytium-optee-v4.6.0/optee_os/lib/libutils/ext/snprintk.c:368
    1a58:	b94053e0 	ldr	w0, [sp, #80]
    1a5c:	321c0000 	orr	w0, w0, #0x10
    1a60:	b90053e0 	str	w0, [sp, #80]
/home/hfut/phytium-pi-os/output/build/phytium-optee-v4.6.0/optee_os/lib/libutils/ext/snprintk.c:370
    1a64:	17ffff58 	b	17c4 <kprintf+0x148>
/home/hfut/phytium-pi-os/output/build/phytium-optee-v4.6.0/optee_os/lib/libutils/ext/snprintk.c:372
    1a68:	b94053e0 	ldr	w0, [sp, #80]
    1a6c:	321b0000 	orr	w0, w0, #0x20
    1a70:	b90053e0 	str	w0, [sp, #80]
/home/hfut/phytium-pi-os/output/build/phytium-optee-v4.6.0/optee_os/lib/libutils/ext/snprintk.c:373
    1a74:	17ffff54 	b	17c4 <kprintf+0x148>
/home/hfut/phytium-pi-os/output/build/phytium-optee-v4.6.0/optee_os/lib/libutils/ext/snprintk.c:375
    1a78:	b94053e0 	ldr	w0, [sp, #80]
    1a7c:	32180000 	orr	w0, w0, #0x100
    1a80:	b90053e0 	str	w0, [sp, #80]
/home/hfut/phytium-pi-os/output/build/phytium-optee-v4.6.0/optee_os/lib/libutils/ext/snprintk.c:376
    1a84:	17ffff50 	b	17c4 <kprintf+0x148>
/home/hfut/phytium-pi-os/output/build/phytium-optee-v4.6.0/optee_os/lib/libutils/ext/snprintk.c:378
    1a88:	b94053e0 	ldr	w0, [sp, #80]
    1a8c:	32170000 	orr	w0, w0, #0x200
    1a90:	b90053e0 	str	w0, [sp, #80]
/home/hfut/phytium-pi-os/output/build/phytium-optee-v4.6.0/optee_os/lib/libutils/ext/snprintk.c:379
    1a94:	17ffff4c 	b	17c4 <kprintf+0x148>
/home/hfut/phytium-pi-os/output/build/phytium-optee-v4.6.0/optee_os/lib/libutils/ext/snprintk.c:381
    1a98:	b9401a61 	ldr	w1, [x19, #24]
    1a9c:	f9400260 	ldr	x0, [x19]
    1aa0:	7100003f 	cmp	w1, #0x0
    1aa4:	540000ab 	b.lt	1ab8 <kprintf+0x43c>  // b.tstop
    1aa8:	91002c01 	add	x1, x0, #0xb
    1aac:	927df021 	and	x1, x1, #0xfffffffffffffff8
    1ab0:	f9000261 	str	x1, [x19]
    1ab4:	1400000d 	b	1ae8 <kprintf+0x46c>
    1ab8:	11002022 	add	w2, w1, #0x8
    1abc:	b9001a62 	str	w2, [x19, #24]
    1ac0:	b9401a62 	ldr	w2, [x19, #24]
    1ac4:	7100005f 	cmp	w2, #0x0
    1ac8:	540000ad 	b.le	1adc <kprintf+0x460>
    1acc:	91002c01 	add	x1, x0, #0xb
    1ad0:	927df021 	and	x1, x1, #0xfffffffffffffff8
    1ad4:	f9000261 	str	x1, [x19]
    1ad8:	14000004 	b	1ae8 <kprintf+0x46c>
    1adc:	f9400662 	ldr	x2, [x19, #8]
    1ae0:	93407c20 	sxtw	x0, w1
    1ae4:	8b000040 	add	x0, x2, x0
    1ae8:	b9400001 	ldr	w1, [x0]
    1aec:	910283e0 	add	x0, sp, #0xa0
    1af0:	f9003fe0 	str	x0, [sp, #120]
    1af4:	12001c21 	and	w1, w1, #0xff
    1af8:	f9403fe0 	ldr	x0, [sp, #120]
    1afc:	39000001 	strb	w1, [x0]
/home/hfut/phytium-pi-os/output/build/phytium-optee-v4.6.0/optee_os/lib/libutils/ext/snprintk.c:382
    1b00:	52800020 	mov	w0, #0x1                   	// #1
    1b04:	b9006fe0 	str	w0, [sp, #108]
/home/hfut/phytium-pi-os/output/build/phytium-optee-v4.6.0/optee_os/lib/libutils/ext/snprintk.c:383
    1b08:	39011fff 	strb	wzr, [sp, #71]
/home/hfut/phytium-pi-os/output/build/phytium-optee-v4.6.0/optee_os/lib/libutils/ext/snprintk.c:384
    1b0c:	140004e3 	b	2e98 <kprintf+0x181c>
/home/hfut/phytium-pi-os/output/build/phytium-optee-v4.6.0/optee_os/lib/libutils/ext/snprintk.c:386
    1b10:	b94053e0 	ldr	w0, [sp, #80]
    1b14:	321c0000 	orr	w0, w0, #0x10
    1b18:	b90053e0 	str	w0, [sp, #80]
/home/hfut/phytium-pi-os/output/build/phytium-optee-v4.6.0/optee_os/lib/libutils/ext/snprintk.c:390
    1b1c:	b94053e0 	ldr	w0, [sp, #80]
    1b20:	12190000 	and	w0, w0, #0x80
    1b24:	7100001f 	cmp	w0, #0x0
    1b28:	540002e0 	b.eq	1b84 <kprintf+0x508>  // b.none
    1b2c:	b9401a61 	ldr	w1, [x19, #24]
    1b30:	f9400260 	ldr	x0, [x19]
    1b34:	7100003f 	cmp	w1, #0x0
    1b38:	540000ab 	b.lt	1b4c <kprintf+0x4d0>  // b.tstop
    1b3c:	91003c01 	add	x1, x0, #0xf
    1b40:	927df021 	and	x1, x1, #0xfffffffffffffff8
    1b44:	f9000261 	str	x1, [x19]
    1b48:	1400000d 	b	1b7c <kprintf+0x500>
    1b4c:	11002022 	add	w2, w1, #0x8
    1b50:	b9001a62 	str	w2, [x19, #24]
    1b54:	b9401a62 	ldr	w2, [x19, #24]
    1b58:	7100005f 	cmp	w2, #0x0
    1b5c:	540000ad 	b.le	1b70 <kprintf+0x4f4>
    1b60:	91003c01 	add	x1, x0, #0xf
    1b64:	927df021 	and	x1, x1, #0xfffffffffffffff8
    1b68:	f9000261 	str	x1, [x19]
    1b6c:	14000004 	b	1b7c <kprintf+0x500>
    1b70:	f9400662 	ldr	x2, [x19, #8]
    1b74:	93407c20 	sxtw	x0, w1
    1b78:	8b000040 	add	x0, x2, x0
    1b7c:	f9400000 	ldr	x0, [x0]
    1b80:	1400009b 	b	1dec <kprintf+0x770>
/home/hfut/phytium-pi-os/output/build/phytium-optee-v4.6.0/optee_os/lib/libutils/ext/snprintk.c:390 (discriminator 2)
    1b84:	b94053e0 	ldr	w0, [sp, #80]
    1b88:	12180000 	and	w0, w0, #0x100
    1b8c:	7100001f 	cmp	w0, #0x0
    1b90:	540002e0 	b.eq	1bec <kprintf+0x570>  // b.none
/home/hfut/phytium-pi-os/output/build/phytium-optee-v4.6.0/optee_os/lib/libutils/ext/snprintk.c:390
    1b94:	b9401a61 	ldr	w1, [x19, #24]
    1b98:	f9400260 	ldr	x0, [x19]
    1b9c:	7100003f 	cmp	w1, #0x0
    1ba0:	540000ab 	b.lt	1bb4 <kprintf+0x538>  // b.tstop
    1ba4:	91003c01 	add	x1, x0, #0xf
    1ba8:	927df021 	and	x1, x1, #0xfffffffffffffff8
    1bac:	f9000261 	str	x1, [x19]
    1bb0:	1400000d 	b	1be4 <kprintf+0x568>
    1bb4:	11002022 	add	w2, w1, #0x8
    1bb8:	b9001a62 	str	w2, [x19, #24]
    1bbc:	b9401a62 	ldr	w2, [x19, #24]
    1bc0:	7100005f 	cmp	w2, #0x0
    1bc4:	540000ad 	b.le	1bd8 <kprintf+0x55c>
    1bc8:	91003c01 	add	x1, x0, #0xf
    1bcc:	927df021 	and	x1, x1, #0xfffffffffffffff8
    1bd0:	f9000261 	str	x1, [x19]
    1bd4:	14000004 	b	1be4 <kprintf+0x568>
    1bd8:	f9400662 	ldr	x2, [x19, #8]
    1bdc:	93407c20 	sxtw	x0, w1
    1be0:	8b000040 	add	x0, x2, x0
    1be4:	f9400000 	ldr	x0, [x0]
    1be8:	14000081 	b	1dec <kprintf+0x770>
/home/hfut/phytium-pi-os/output/build/phytium-optee-v4.6.0/optee_os/lib/libutils/ext/snprintk.c:390 (discriminator 5)
    1bec:	b94053e0 	ldr	w0, [sp, #80]
    1bf0:	12170000 	and	w0, w0, #0x200
    1bf4:	7100001f 	cmp	w0, #0x0
    1bf8:	540002e0 	b.eq	1c54 <kprintf+0x5d8>  // b.none
/home/hfut/phytium-pi-os/output/build/phytium-optee-v4.6.0/optee_os/lib/libutils/ext/snprintk.c:390
    1bfc:	b9401a61 	ldr	w1, [x19, #24]
    1c00:	f9400260 	ldr	x0, [x19]
    1c04:	7100003f 	cmp	w1, #0x0
    1c08:	540000ab 	b.lt	1c1c <kprintf+0x5a0>  // b.tstop
    1c0c:	91003c01 	add	x1, x0, #0xf
    1c10:	927df021 	and	x1, x1, #0xfffffffffffffff8
    1c14:	f9000261 	str	x1, [x19]
    1c18:	1400000d 	b	1c4c <kprintf+0x5d0>
    1c1c:	11002022 	add	w2, w1, #0x8
    1c20:	b9001a62 	str	w2, [x19, #24]
    1c24:	b9401a62 	ldr	w2, [x19, #24]
    1c28:	7100005f 	cmp	w2, #0x0
    1c2c:	540000ad 	b.le	1c40 <kprintf+0x5c4>
    1c30:	91003c01 	add	x1, x0, #0xf
    1c34:	927df021 	and	x1, x1, #0xfffffffffffffff8
    1c38:	f9000261 	str	x1, [x19]
    1c3c:	14000004 	b	1c4c <kprintf+0x5d0>
    1c40:	f9400662 	ldr	x2, [x19, #8]
    1c44:	93407c20 	sxtw	x0, w1
    1c48:	8b000040 	add	x0, x2, x0
    1c4c:	f9400000 	ldr	x0, [x0]
    1c50:	14000067 	b	1dec <kprintf+0x770>
/home/hfut/phytium-pi-os/output/build/phytium-optee-v4.6.0/optee_os/lib/libutils/ext/snprintk.c:390 (discriminator 8)
    1c54:	b94053e0 	ldr	w0, [sp, #80]
    1c58:	121b0000 	and	w0, w0, #0x20
    1c5c:	7100001f 	cmp	w0, #0x0
    1c60:	540002e0 	b.eq	1cbc <kprintf+0x640>  // b.none
/home/hfut/phytium-pi-os/output/build/phytium-optee-v4.6.0/optee_os/lib/libutils/ext/snprintk.c:390
    1c64:	b9401a61 	ldr	w1, [x19, #24]
    1c68:	f9400260 	ldr	x0, [x19]
    1c6c:	7100003f 	cmp	w1, #0x0
    1c70:	540000ab 	b.lt	1c84 <kprintf+0x608>  // b.tstop
    1c74:	91003c01 	add	x1, x0, #0xf
    1c78:	927df021 	and	x1, x1, #0xfffffffffffffff8
    1c7c:	f9000261 	str	x1, [x19]
    1c80:	1400000d 	b	1cb4 <kprintf+0x638>
    1c84:	11002022 	add	w2, w1, #0x8
    1c88:	b9001a62 	str	w2, [x19, #24]
    1c8c:	b9401a62 	ldr	w2, [x19, #24]
    1c90:	7100005f 	cmp	w2, #0x0
    1c94:	540000ad 	b.le	1ca8 <kprintf+0x62c>
    1c98:	91003c01 	add	x1, x0, #0xf
    1c9c:	927df021 	and	x1, x1, #0xfffffffffffffff8
    1ca0:	f9000261 	str	x1, [x19]
    1ca4:	14000004 	b	1cb4 <kprintf+0x638>
    1ca8:	f9400662 	ldr	x2, [x19, #8]
    1cac:	93407c20 	sxtw	x0, w1
    1cb0:	8b000040 	add	x0, x2, x0
    1cb4:	f9400000 	ldr	x0, [x0]
    1cb8:	1400004d 	b	1dec <kprintf+0x770>
/home/hfut/phytium-pi-os/output/build/phytium-optee-v4.6.0/optee_os/lib/libutils/ext/snprintk.c:390 (discriminator 11)
    1cbc:	b94053e0 	ldr	w0, [sp, #80]
    1cc0:	121c0000 	and	w0, w0, #0x10
    1cc4:	7100001f 	cmp	w0, #0x0
    1cc8:	540002e0 	b.eq	1d24 <kprintf+0x6a8>  // b.none
/home/hfut/phytium-pi-os/output/build/phytium-optee-v4.6.0/optee_os/lib/libutils/ext/snprintk.c:390
    1ccc:	b9401a61 	ldr	w1, [x19, #24]
    1cd0:	f9400260 	ldr	x0, [x19]
    1cd4:	7100003f 	cmp	w1, #0x0
    1cd8:	540000ab 	b.lt	1cec <kprintf+0x670>  // b.tstop
    1cdc:	91003c01 	add	x1, x0, #0xf
    1ce0:	927df021 	and	x1, x1, #0xfffffffffffffff8
    1ce4:	f9000261 	str	x1, [x19]
    1ce8:	1400000d 	b	1d1c <kprintf+0x6a0>
    1cec:	11002022 	add	w2, w1, #0x8
    1cf0:	b9001a62 	str	w2, [x19, #24]
    1cf4:	b9401a62 	ldr	w2, [x19, #24]
    1cf8:	7100005f 	cmp	w2, #0x0
    1cfc:	540000ad 	b.le	1d10 <kprintf+0x694>
    1d00:	91003c01 	add	x1, x0, #0xf
    1d04:	927df021 	and	x1, x1, #0xfffffffffffffff8
    1d08:	f9000261 	str	x1, [x19]
    1d0c:	14000004 	b	1d1c <kprintf+0x6a0>
    1d10:	f9400662 	ldr	x2, [x19, #8]
    1d14:	93407c20 	sxtw	x0, w1
    1d18:	8b000040 	add	x0, x2, x0
    1d1c:	f9400000 	ldr	x0, [x0]
    1d20:	14000033 	b	1dec <kprintf+0x770>
/home/hfut/phytium-pi-os/output/build/phytium-optee-v4.6.0/optee_os/lib/libutils/ext/snprintk.c:390 (discriminator 14)
    1d24:	b94053e0 	ldr	w0, [sp, #80]
    1d28:	121a0000 	and	w0, w0, #0x40
    1d2c:	7100001f 	cmp	w0, #0x0
    1d30:	54000320 	b.eq	1d94 <kprintf+0x718>  // b.none
/home/hfut/phytium-pi-os/output/build/phytium-optee-v4.6.0/optee_os/lib/libutils/ext/snprintk.c:390
    1d34:	b9401a61 	ldr	w1, [x19, #24]
    1d38:	f9400260 	ldr	x0, [x19]
    1d3c:	7100003f 	cmp	w1, #0x0
    1d40:	540000ab 	b.lt	1d54 <kprintf+0x6d8>  // b.tstop
    1d44:	91002c01 	add	x1, x0, #0xb
    1d48:	927df021 	and	x1, x1, #0xfffffffffffffff8
    1d4c:	f9000261 	str	x1, [x19]
    1d50:	1400000d 	b	1d84 <kprintf+0x708>
    1d54:	11002022 	add	w2, w1, #0x8
    1d58:	b9001a62 	str	w2, [x19, #24]
    1d5c:	b9401a62 	ldr	w2, [x19, #24]
    1d60:	7100005f 	cmp	w2, #0x0
    1d64:	540000ad 	b.le	1d78 <kprintf+0x6fc>
    1d68:	91002c01 	add	x1, x0, #0xb
    1d6c:	927df021 	and	x1, x1, #0xfffffffffffffff8
    1d70:	f9000261 	str	x1, [x19]
    1d74:	14000004 	b	1d84 <kprintf+0x708>
    1d78:	f9400662 	ldr	x2, [x19, #8]
    1d7c:	93407c20 	sxtw	x0, w1
    1d80:	8b000040 	add	x0, x2, x0
    1d84:	b9400000 	ldr	w0, [x0]
    1d88:	13003c00 	sxth	w0, w0
    1d8c:	93403c00 	sxth	x0, w0
    1d90:	14000017 	b	1dec <kprintf+0x770>
    1d94:	b9401a61 	ldr	w1, [x19, #24]
    1d98:	f9400260 	ldr	x0, [x19]
    1d9c:	7100003f 	cmp	w1, #0x0
    1da0:	540000ab 	b.lt	1db4 <kprintf+0x738>  // b.tstop
    1da4:	91002c01 	add	x1, x0, #0xb
    1da8:	927df021 	and	x1, x1, #0xfffffffffffffff8
    1dac:	f9000261 	str	x1, [x19]
    1db0:	1400000d 	b	1de4 <kprintf+0x768>
    1db4:	11002022 	add	w2, w1, #0x8
    1db8:	b9001a62 	str	w2, [x19, #24]
    1dbc:	b9401a62 	ldr	w2, [x19, #24]
    1dc0:	7100005f 	cmp	w2, #0x0
    1dc4:	540000ad 	b.le	1dd8 <kprintf+0x75c>
    1dc8:	91002c01 	add	x1, x0, #0xb
    1dcc:	927df021 	and	x1, x1, #0xfffffffffffffff8
    1dd0:	f9000261 	str	x1, [x19]
    1dd4:	14000004 	b	1de4 <kprintf+0x768>
    1dd8:	f9400662 	ldr	x2, [x19, #8]
    1ddc:	93407c20 	sxtw	x0, w1
    1de0:	8b000040 	add	x0, x2, x0
    1de4:	b9400000 	ldr	w0, [x0]
    1de8:	93407c00 	sxtw	x0, w0
/home/hfut/phytium-pi-os/output/build/phytium-optee-v4.6.0/optee_os/lib/libutils/ext/snprintk.c:390 (discriminator 24)
    1dec:	f90043e0 	str	x0, [sp, #128]
/home/hfut/phytium-pi-os/output/build/phytium-optee-v4.6.0/optee_os/lib/libutils/ext/snprintk.c:391 (discriminator 24)
    1df0:	f94043e0 	ldr	x0, [sp, #128]
    1df4:	f100001f 	cmp	x0, #0x0
    1df8:	540000ca 	b.ge	1e10 <kprintf+0x794>  // b.tcont
/home/hfut/phytium-pi-os/output/build/phytium-optee-v4.6.0/optee_os/lib/libutils/ext/snprintk.c:392
    1dfc:	f94043e0 	ldr	x0, [sp, #128]
    1e00:	cb0003e0 	neg	x0, x0
    1e04:	f90043e0 	str	x0, [sp, #128]
/home/hfut/phytium-pi-os/output/build/phytium-optee-v4.6.0/optee_os/lib/libutils/ext/snprintk.c:393
    1e08:	528005a0 	mov	w0, #0x2d                  	// #45
    1e0c:	39011fe0 	strb	w0, [sp, #71]
/home/hfut/phytium-pi-os/output/build/phytium-optee-v4.6.0/optee_os/lib/libutils/ext/snprintk.c:395
    1e10:	52800020 	mov	w0, #0x1                   	// #1
    1e14:	b90063e0 	str	w0, [sp, #96]
/home/hfut/phytium-pi-os/output/build/phytium-optee-v4.6.0/optee_os/lib/libutils/ext/snprintk.c:396
    1e18:	1400038b 	b	2c44 <kprintf+0x15c8>
/home/hfut/phytium-pi-os/output/build/phytium-optee-v4.6.0/optee_os/lib/libutils/ext/snprintk.c:398
    1e1c:	b94053e0 	ldr	w0, [sp, #80]
    1e20:	12190000 	and	w0, w0, #0x80
    1e24:	7100001f 	cmp	w0, #0x0
    1e28:	54000320 	b.eq	1e8c <kprintf+0x810>  // b.none
/home/hfut/phytium-pi-os/output/build/phytium-optee-v4.6.0/optee_os/lib/libutils/ext/snprintk.c:399
    1e2c:	b9401a61 	ldr	w1, [x19, #24]
    1e30:	f9400260 	ldr	x0, [x19]
    1e34:	7100003f 	cmp	w1, #0x0
    1e38:	540000ab 	b.lt	1e4c <kprintf+0x7d0>  // b.tstop
    1e3c:	91003c01 	add	x1, x0, #0xf
    1e40:	927df021 	and	x1, x1, #0xfffffffffffffff8
    1e44:	f9000261 	str	x1, [x19]
    1e48:	1400000d 	b	1e7c <kprintf+0x800>
    1e4c:	11002022 	add	w2, w1, #0x8
    1e50:	b9001a62 	str	w2, [x19, #24]
    1e54:	b9401a62 	ldr	w2, [x19, #24]
    1e58:	7100005f 	cmp	w2, #0x0
    1e5c:	540000ad 	b.le	1e70 <kprintf+0x7f4>
    1e60:	91003c01 	add	x1, x0, #0xf
    1e64:	927df021 	and	x1, x1, #0xfffffffffffffff8
    1e68:	f9000261 	str	x1, [x19]
    1e6c:	14000004 	b	1e7c <kprintf+0x800>
    1e70:	f9400662 	ldr	x2, [x19, #8]
    1e74:	93407c20 	sxtw	x0, w1
    1e78:	8b000040 	add	x0, x2, x0
    1e7c:	f9400000 	ldr	x0, [x0]
    1e80:	b98057e1 	ldrsw	x1, [sp, #84]
    1e84:	f9000001 	str	x1, [x0]
/home/hfut/phytium-pi-os/output/build/phytium-optee-v4.6.0/optee_os/lib/libutils/ext/snprintk.c:412
    1e88:	140004f9 	b	326c <kprintf+0x1bf0>
/home/hfut/phytium-pi-os/output/build/phytium-optee-v4.6.0/optee_os/lib/libutils/ext/snprintk.c:400
    1e8c:	b94053e0 	ldr	w0, [sp, #80]
    1e90:	12180000 	and	w0, w0, #0x100
    1e94:	7100001f 	cmp	w0, #0x0
    1e98:	54000320 	b.eq	1efc <kprintf+0x880>  // b.none
/home/hfut/phytium-pi-os/output/build/phytium-optee-v4.6.0/optee_os/lib/libutils/ext/snprintk.c:401
    1e9c:	b9401a61 	ldr	w1, [x19, #24]
    1ea0:	f9400260 	ldr	x0, [x19]
    1ea4:	7100003f 	cmp	w1, #0x0
    1ea8:	540000ab 	b.lt	1ebc <kprintf+0x840>  // b.tstop
    1eac:	91003c01 	add	x1, x0, #0xf
    1eb0:	927df021 	and	x1, x1, #0xfffffffffffffff8
    1eb4:	f9000261 	str	x1, [x19]
    1eb8:	1400000d 	b	1eec <kprintf+0x870>
    1ebc:	11002022 	add	w2, w1, #0x8
    1ec0:	b9001a62 	str	w2, [x19, #24]
    1ec4:	b9401a62 	ldr	w2, [x19, #24]
    1ec8:	7100005f 	cmp	w2, #0x0
    1ecc:	540000ad 	b.le	1ee0 <kprintf+0x864>
    1ed0:	91003c01 	add	x1, x0, #0xf
    1ed4:	927df021 	and	x1, x1, #0xfffffffffffffff8
    1ed8:	f9000261 	str	x1, [x19]
    1edc:	14000004 	b	1eec <kprintf+0x870>
    1ee0:	f9400662 	ldr	x2, [x19, #8]
    1ee4:	93407c20 	sxtw	x0, w1
    1ee8:	8b000040 	add	x0, x2, x0
    1eec:	f9400000 	ldr	x0, [x0]
    1ef0:	b98057e1 	ldrsw	x1, [sp, #84]
    1ef4:	f9000001 	str	x1, [x0]
/home/hfut/phytium-pi-os/output/build/phytium-optee-v4.6.0/optee_os/lib/libutils/ext/snprintk.c:412
    1ef8:	140004dd 	b	326c <kprintf+0x1bf0>
/home/hfut/phytium-pi-os/output/build/phytium-optee-v4.6.0/optee_os/lib/libutils/ext/snprintk.c:402
    1efc:	b94053e0 	ldr	w0, [sp, #80]
    1f00:	12170000 	and	w0, w0, #0x200
    1f04:	7100001f 	cmp	w0, #0x0
    1f08:	54000320 	b.eq	1f6c <kprintf+0x8f0>  // b.none
/home/hfut/phytium-pi-os/output/build/phytium-optee-v4.6.0/optee_os/lib/libutils/ext/snprintk.c:403
    1f0c:	b9401a61 	ldr	w1, [x19, #24]
    1f10:	f9400260 	ldr	x0, [x19]
    1f14:	7100003f 	cmp	w1, #0x0
    1f18:	540000ab 	b.lt	1f2c <kprintf+0x8b0>  // b.tstop
    1f1c:	91003c01 	add	x1, x0, #0xf
    1f20:	927df021 	and	x1, x1, #0xfffffffffffffff8
    1f24:	f9000261 	str	x1, [x19]
    1f28:	1400000d 	b	1f5c <kprintf+0x8e0>
    1f2c:	11002022 	add	w2, w1, #0x8
    1f30:	b9001a62 	str	w2, [x19, #24]
    1f34:	b9401a62 	ldr	w2, [x19, #24]
    1f38:	7100005f 	cmp	w2, #0x0
    1f3c:	540000ad 	b.le	1f50 <kprintf+0x8d4>
    1f40:	91003c01 	add	x1, x0, #0xf
    1f44:	927df021 	and	x1, x1, #0xfffffffffffffff8
    1f48:	f9000261 	str	x1, [x19]
    1f4c:	14000004 	b	1f5c <kprintf+0x8e0>
    1f50:	f9400662 	ldr	x2, [x19, #8]
    1f54:	93407c20 	sxtw	x0, w1
    1f58:	8b000040 	add	x0, x2, x0
    1f5c:	f9400000 	ldr	x0, [x0]
    1f60:	b98057e1 	ldrsw	x1, [sp, #84]
    1f64:	f9000001 	str	x1, [x0]
/home/hfut/phytium-pi-os/output/build/phytium-optee-v4.6.0/optee_os/lib/libutils/ext/snprintk.c:412
    1f68:	140004c1 	b	326c <kprintf+0x1bf0>
/home/hfut/phytium-pi-os/output/build/phytium-optee-v4.6.0/optee_os/lib/libutils/ext/snprintk.c:404
    1f6c:	b94053e0 	ldr	w0, [sp, #80]
    1f70:	121b0000 	and	w0, w0, #0x20
    1f74:	7100001f 	cmp	w0, #0x0
    1f78:	54000320 	b.eq	1fdc <kprintf+0x960>  // b.none
/home/hfut/phytium-pi-os/output/build/phytium-optee-v4.6.0/optee_os/lib/libutils/ext/snprintk.c:405
    1f7c:	b9401a61 	ldr	w1, [x19, #24]
    1f80:	f9400260 	ldr	x0, [x19]
    1f84:	7100003f 	cmp	w1, #0x0
    1f88:	540000ab 	b.lt	1f9c <kprintf+0x920>  // b.tstop
    1f8c:	91003c01 	add	x1, x0, #0xf
    1f90:	927df021 	and	x1, x1, #0xfffffffffffffff8
    1f94:	f9000261 	str	x1, [x19]
    1f98:	1400000d 	b	1fcc <kprintf+0x950>
    1f9c:	11002022 	add	w2, w1, #0x8
    1fa0:	b9001a62 	str	w2, [x19, #24]
    1fa4:	b9401a62 	ldr	w2, [x19, #24]
    1fa8:	7100005f 	cmp	w2, #0x0
    1fac:	540000ad 	b.le	1fc0 <kprintf+0x944>
    1fb0:	91003c01 	add	x1, x0, #0xf
    1fb4:	927df021 	and	x1, x1, #0xfffffffffffffff8
    1fb8:	f9000261 	str	x1, [x19]
    1fbc:	14000004 	b	1fcc <kprintf+0x950>
    1fc0:	f9400662 	ldr	x2, [x19, #8]
    1fc4:	93407c20 	sxtw	x0, w1
    1fc8:	8b000040 	add	x0, x2, x0
    1fcc:	f9400000 	ldr	x0, [x0]
    1fd0:	b98057e1 	ldrsw	x1, [sp, #84]
    1fd4:	f9000001 	str	x1, [x0]
/home/hfut/phytium-pi-os/output/build/phytium-optee-v4.6.0/optee_os/lib/libutils/ext/snprintk.c:412
    1fd8:	140004a5 	b	326c <kprintf+0x1bf0>
/home/hfut/phytium-pi-os/output/build/phytium-optee-v4.6.0/optee_os/lib/libutils/ext/snprintk.c:406
    1fdc:	b94053e0 	ldr	w0, [sp, #80]
    1fe0:	121c0000 	and	w0, w0, #0x10
    1fe4:	7100001f 	cmp	w0, #0x0
    1fe8:	54000320 	b.eq	204c <kprintf+0x9d0>  // b.none
/home/hfut/phytium-pi-os/output/build/phytium-optee-v4.6.0/optee_os/lib/libutils/ext/snprintk.c:407
    1fec:	b9401a61 	ldr	w1, [x19, #24]
    1ff0:	f9400260 	ldr	x0, [x19]
    1ff4:	7100003f 	cmp	w1, #0x0
    1ff8:	540000ab 	b.lt	200c <kprintf+0x990>  // b.tstop
    1ffc:	91003c01 	add	x1, x0, #0xf
    2000:	927df021 	and	x1, x1, #0xfffffffffffffff8
    2004:	f9000261 	str	x1, [x19]
    2008:	1400000d 	b	203c <kprintf+0x9c0>
    200c:	11002022 	add	w2, w1, #0x8
    2010:	b9001a62 	str	w2, [x19, #24]
    2014:	b9401a62 	ldr	w2, [x19, #24]
    2018:	7100005f 	cmp	w2, #0x0
    201c:	540000ad 	b.le	2030 <kprintf+0x9b4>
    2020:	91003c01 	add	x1, x0, #0xf
    2024:	927df021 	and	x1, x1, #0xfffffffffffffff8
    2028:	f9000261 	str	x1, [x19]
    202c:	14000004 	b	203c <kprintf+0x9c0>
    2030:	f9400662 	ldr	x2, [x19, #8]
    2034:	93407c20 	sxtw	x0, w1
    2038:	8b000040 	add	x0, x2, x0
    203c:	f9400000 	ldr	x0, [x0]
    2040:	b98057e1 	ldrsw	x1, [sp, #84]
    2044:	f9000001 	str	x1, [x0]
/home/hfut/phytium-pi-os/output/build/phytium-optee-v4.6.0/optee_os/lib/libutils/ext/snprintk.c:412
    2048:	14000489 	b	326c <kprintf+0x1bf0>
/home/hfut/phytium-pi-os/output/build/phytium-optee-v4.6.0/optee_os/lib/libutils/ext/snprintk.c:408
    204c:	b94053e0 	ldr	w0, [sp, #80]
    2050:	121a0000 	and	w0, w0, #0x40
    2054:	7100001f 	cmp	w0, #0x0
    2058:	54000340 	b.eq	20c0 <kprintf+0xa44>  // b.none
/home/hfut/phytium-pi-os/output/build/phytium-optee-v4.6.0/optee_os/lib/libutils/ext/snprintk.c:409
    205c:	b9401a61 	ldr	w1, [x19, #24]
    2060:	f9400260 	ldr	x0, [x19]
    2064:	7100003f 	cmp	w1, #0x0
    2068:	540000ab 	b.lt	207c <kprintf+0xa00>  // b.tstop
    206c:	91003c01 	add	x1, x0, #0xf
    2070:	927df021 	and	x1, x1, #0xfffffffffffffff8
    2074:	f9000261 	str	x1, [x19]
    2078:	1400000d 	b	20ac <kprintf+0xa30>
    207c:	11002022 	add	w2, w1, #0x8
    2080:	b9001a62 	str	w2, [x19, #24]
    2084:	b9401a62 	ldr	w2, [x19, #24]
    2088:	7100005f 	cmp	w2, #0x0
    208c:	540000ad 	b.le	20a0 <kprintf+0xa24>
    2090:	91003c01 	add	x1, x0, #0xf
    2094:	927df021 	and	x1, x1, #0xfffffffffffffff8
    2098:	f9000261 	str	x1, [x19]
    209c:	14000004 	b	20ac <kprintf+0xa30>
    20a0:	f9400662 	ldr	x2, [x19, #8]
    20a4:	93407c20 	sxtw	x0, w1
    20a8:	8b000040 	add	x0, x2, x0
    20ac:	f9400000 	ldr	x0, [x0]
    20b0:	b94057e1 	ldr	w1, [sp, #84]
    20b4:	13003c21 	sxth	w1, w1
    20b8:	79000001 	strh	w1, [x0]
/home/hfut/phytium-pi-os/output/build/phytium-optee-v4.6.0/optee_os/lib/libutils/ext/snprintk.c:412
    20bc:	1400046c 	b	326c <kprintf+0x1bf0>
/home/hfut/phytium-pi-os/output/build/phytium-optee-v4.6.0/optee_os/lib/libutils/ext/snprintk.c:411
    20c0:	b9401a61 	ldr	w1, [x19, #24]
    20c4:	f9400260 	ldr	x0, [x19]
    20c8:	7100003f 	cmp	w1, #0x0
    20cc:	540000ab 	b.lt	20e0 <kprintf+0xa64>  // b.tstop
    20d0:	91003c01 	add	x1, x0, #0xf
    20d4:	927df021 	and	x1, x1, #0xfffffffffffffff8
    20d8:	f9000261 	str	x1, [x19]
    20dc:	1400000d 	b	2110 <kprintf+0xa94>
    20e0:	11002022 	add	w2, w1, #0x8
    20e4:	b9001a62 	str	w2, [x19, #24]
    20e8:	b9401a62 	ldr	w2, [x19, #24]
    20ec:	7100005f 	cmp	w2, #0x0
    20f0:	540000ad 	b.le	2104 <kprintf+0xa88>
    20f4:	91003c01 	add	x1, x0, #0xf
    20f8:	927df021 	and	x1, x1, #0xfffffffffffffff8
    20fc:	f9000261 	str	x1, [x19]
    2100:	14000004 	b	2110 <kprintf+0xa94>
    2104:	f9400662 	ldr	x2, [x19, #8]
    2108:	93407c20 	sxtw	x0, w1
    210c:	8b000040 	add	x0, x2, x0
    2110:	f9400000 	ldr	x0, [x0]
    2114:	b94057e1 	ldr	w1, [sp, #84]
    2118:	b9000001 	str	w1, [x0]
/home/hfut/phytium-pi-os/output/build/phytium-optee-v4.6.0/optee_os/lib/libutils/ext/snprintk.c:412
    211c:	14000454 	b	326c <kprintf+0x1bf0>
/home/hfut/phytium-pi-os/output/build/phytium-optee-v4.6.0/optee_os/lib/libutils/ext/snprintk.c:414
    2120:	b94053e0 	ldr	w0, [sp, #80]
    2124:	321c0000 	orr	w0, w0, #0x10
    2128:	b90053e0 	str	w0, [sp, #80]
/home/hfut/phytium-pi-os/output/build/phytium-optee-v4.6.0/optee_os/lib/libutils/ext/snprintk.c:417
    212c:	b94053e0 	ldr	w0, [sp, #80]
    2130:	12190000 	and	w0, w0, #0x80
    2134:	7100001f 	cmp	w0, #0x0
    2138:	540002e0 	b.eq	2194 <kprintf+0xb18>  // b.none
    213c:	b9401a61 	ldr	w1, [x19, #24]
    2140:	f9400260 	ldr	x0, [x19]
    2144:	7100003f 	cmp	w1, #0x0
    2148:	540000ab 	b.lt	215c <kprintf+0xae0>  // b.tstop
    214c:	91003c01 	add	x1, x0, #0xf
    2150:	927df021 	and	x1, x1, #0xfffffffffffffff8
    2154:	f9000261 	str	x1, [x19]
    2158:	1400000d 	b	218c <kprintf+0xb10>
    215c:	11002022 	add	w2, w1, #0x8
    2160:	b9001a62 	str	w2, [x19, #24]
    2164:	b9401a62 	ldr	w2, [x19, #24]
    2168:	7100005f 	cmp	w2, #0x0
    216c:	540000ad 	b.le	2180 <kprintf+0xb04>
    2170:	91003c01 	add	x1, x0, #0xf
    2174:	927df021 	and	x1, x1, #0xfffffffffffffff8
    2178:	f9000261 	str	x1, [x19]
    217c:	14000004 	b	218c <kprintf+0xb10>
    2180:	f9400662 	ldr	x2, [x19, #8]
    2184:	93407c20 	sxtw	x0, w1
    2188:	8b000040 	add	x0, x2, x0
    218c:	f9400000 	ldr	x0, [x0]
    2190:	1400009b 	b	23fc <kprintf+0xd80>
/home/hfut/phytium-pi-os/output/build/phytium-optee-v4.6.0/optee_os/lib/libutils/ext/snprintk.c:417 (discriminator 2)
    2194:	b94053e0 	ldr	w0, [sp, #80]
    2198:	12180000 	and	w0, w0, #0x100
    219c:	7100001f 	cmp	w0, #0x0
    21a0:	540002e0 	b.eq	21fc <kprintf+0xb80>  // b.none
/home/hfut/phytium-pi-os/output/build/phytium-optee-v4.6.0/optee_os/lib/libutils/ext/snprintk.c:417
    21a4:	b9401a61 	ldr	w1, [x19, #24]
    21a8:	f9400260 	ldr	x0, [x19]
    21ac:	7100003f 	cmp	w1, #0x0
    21b0:	540000ab 	b.lt	21c4 <kprintf+0xb48>  // b.tstop
    21b4:	91003c01 	add	x1, x0, #0xf
    21b8:	927df021 	and	x1, x1, #0xfffffffffffffff8
    21bc:	f9000261 	str	x1, [x19]
    21c0:	1400000d 	b	21f4 <kprintf+0xb78>
    21c4:	11002022 	add	w2, w1, #0x8
    21c8:	b9001a62 	str	w2, [x19, #24]
    21cc:	b9401a62 	ldr	w2, [x19, #24]
    21d0:	7100005f 	cmp	w2, #0x0
    21d4:	540000ad 	b.le	21e8 <kprintf+0xb6c>
    21d8:	91003c01 	add	x1, x0, #0xf
    21dc:	927df021 	and	x1, x1, #0xfffffffffffffff8
    21e0:	f9000261 	str	x1, [x19]
    21e4:	14000004 	b	21f4 <kprintf+0xb78>
    21e8:	f9400662 	ldr	x2, [x19, #8]
    21ec:	93407c20 	sxtw	x0, w1
    21f0:	8b000040 	add	x0, x2, x0
    21f4:	f9400000 	ldr	x0, [x0]
    21f8:	14000081 	b	23fc <kprintf+0xd80>
/home/hfut/phytium-pi-os/output/build/phytium-optee-v4.6.0/optee_os/lib/libutils/ext/snprintk.c:417 (discriminator 5)
    21fc:	b94053e0 	ldr	w0, [sp, #80]
    2200:	12170000 	and	w0, w0, #0x200
    2204:	7100001f 	cmp	w0, #0x0
    2208:	540002e0 	b.eq	2264 <kprintf+0xbe8>  // b.none
/home/hfut/phytium-pi-os/output/build/phytium-optee-v4.6.0/optee_os/lib/libutils/ext/snprintk.c:417
    220c:	b9401a61 	ldr	w1, [x19, #24]
    2210:	f9400260 	ldr	x0, [x19]
    2214:	7100003f 	cmp	w1, #0x0
    2218:	540000ab 	b.lt	222c <kprintf+0xbb0>  // b.tstop
    221c:	91003c01 	add	x1, x0, #0xf
    2220:	927df021 	and	x1, x1, #0xfffffffffffffff8
    2224:	f9000261 	str	x1, [x19]
    2228:	1400000d 	b	225c <kprintf+0xbe0>
    222c:	11002022 	add	w2, w1, #0x8
    2230:	b9001a62 	str	w2, [x19, #24]
    2234:	b9401a62 	ldr	w2, [x19, #24]
    2238:	7100005f 	cmp	w2, #0x0
    223c:	540000ad 	b.le	2250 <kprintf+0xbd4>
    2240:	91003c01 	add	x1, x0, #0xf
    2244:	927df021 	and	x1, x1, #0xfffffffffffffff8
    2248:	f9000261 	str	x1, [x19]
    224c:	14000004 	b	225c <kprintf+0xbe0>
    2250:	f9400662 	ldr	x2, [x19, #8]
    2254:	93407c20 	sxtw	x0, w1
    2258:	8b000040 	add	x0, x2, x0
    225c:	f9400000 	ldr	x0, [x0]
    2260:	14000067 	b	23fc <kprintf+0xd80>
/home/hfut/phytium-pi-os/output/build/phytium-optee-v4.6.0/optee_os/lib/libutils/ext/snprintk.c:417 (discriminator 8)
    2264:	b94053e0 	ldr	w0, [sp, #80]
    2268:	121b0000 	and	w0, w0, #0x20
    226c:	7100001f 	cmp	w0, #0x0
    2270:	540002e0 	b.eq	22cc <kprintf+0xc50>  // b.none
/home/hfut/phytium-pi-os/output/build/phytium-optee-v4.6.0/optee_os/lib/libutils/ext/snprintk.c:417
    2274:	b9401a61 	ldr	w1, [x19, #24]
    2278:	f9400260 	ldr	x0, [x19]
    227c:	7100003f 	cmp	w1, #0x0
    2280:	540000ab 	b.lt	2294 <kprintf+0xc18>  // b.tstop
    2284:	91003c01 	add	x1, x0, #0xf
    2288:	927df021 	and	x1, x1, #0xfffffffffffffff8
    228c:	f9000261 	str	x1, [x19]
    2290:	1400000d 	b	22c4 <kprintf+0xc48>
    2294:	11002022 	add	w2, w1, #0x8
    2298:	b9001a62 	str	w2, [x19, #24]
    229c:	b9401a62 	ldr	w2, [x19, #24]
    22a0:	7100005f 	cmp	w2, #0x0
    22a4:	540000ad 	b.le	22b8 <kprintf+0xc3c>
    22a8:	91003c01 	add	x1, x0, #0xf
    22ac:	927df021 	and	x1, x1, #0xfffffffffffffff8
    22b0:	f9000261 	str	x1, [x19]
    22b4:	14000004 	b	22c4 <kprintf+0xc48>
    22b8:	f9400662 	ldr	x2, [x19, #8]
    22bc:	93407c20 	sxtw	x0, w1
    22c0:	8b000040 	add	x0, x2, x0
    22c4:	f9400000 	ldr	x0, [x0]
    22c8:	1400004d 	b	23fc <kprintf+0xd80>
/home/hfut/phytium-pi-os/output/build/phytium-optee-v4.6.0/optee_os/lib/libutils/ext/snprintk.c:417 (discriminator 11)
    22cc:	b94053e0 	ldr	w0, [sp, #80]
    22d0:	121c0000 	and	w0, w0, #0x10
    22d4:	7100001f 	cmp	w0, #0x0
    22d8:	540002e0 	b.eq	2334 <kprintf+0xcb8>  // b.none
/home/hfut/phytium-pi-os/output/build/phytium-optee-v4.6.0/optee_os/lib/libutils/ext/snprintk.c:417
    22dc:	b9401a61 	ldr	w1, [x19, #24]
    22e0:	f9400260 	ldr	x0, [x19]
    22e4:	7100003f 	cmp	w1, #0x0
    22e8:	540000ab 	b.lt	22fc <kprintf+0xc80>  // b.tstop
    22ec:	91003c01 	add	x1, x0, #0xf
    22f0:	927df021 	and	x1, x1, #0xfffffffffffffff8
    22f4:	f9000261 	str	x1, [x19]
    22f8:	1400000d 	b	232c <kprintf+0xcb0>
    22fc:	11002022 	add	w2, w1, #0x8
    2300:	b9001a62 	str	w2, [x19, #24]
    2304:	b9401a62 	ldr	w2, [x19, #24]
    2308:	7100005f 	cmp	w2, #0x0
    230c:	540000ad 	b.le	2320 <kprintf+0xca4>
    2310:	91003c01 	add	x1, x0, #0xf
    2314:	927df021 	and	x1, x1, #0xfffffffffffffff8
    2318:	f9000261 	str	x1, [x19]
    231c:	14000004 	b	232c <kprintf+0xcb0>
    2320:	f9400662 	ldr	x2, [x19, #8]
    2324:	93407c20 	sxtw	x0, w1
    2328:	8b000040 	add	x0, x2, x0
    232c:	f9400000 	ldr	x0, [x0]
    2330:	14000033 	b	23fc <kprintf+0xd80>
/home/hfut/phytium-pi-os/output/build/phytium-optee-v4.6.0/optee_os/lib/libutils/ext/snprintk.c:417 (discriminator 14)
    2334:	b94053e0 	ldr	w0, [sp, #80]
    2338:	121a0000 	and	w0, w0, #0x40
    233c:	7100001f 	cmp	w0, #0x0
    2340:	54000320 	b.eq	23a4 <kprintf+0xd28>  // b.none
/home/hfut/phytium-pi-os/output/build/phytium-optee-v4.6.0/optee_os/lib/libutils/ext/snprintk.c:417
    2344:	b9401a61 	ldr	w1, [x19, #24]
    2348:	f9400260 	ldr	x0, [x19]
    234c:	7100003f 	cmp	w1, #0x0
    2350:	540000ab 	b.lt	2364 <kprintf+0xce8>  // b.tstop
    2354:	91002c01 	add	x1, x0, #0xb
    2358:	927df021 	and	x1, x1, #0xfffffffffffffff8
    235c:	f9000261 	str	x1, [x19]
    2360:	1400000d 	b	2394 <kprintf+0xd18>
    2364:	11002022 	add	w2, w1, #0x8
    2368:	b9001a62 	str	w2, [x19, #24]
    236c:	b9401a62 	ldr	w2, [x19, #24]
    2370:	7100005f 	cmp	w2, #0x0
    2374:	540000ad 	b.le	2388 <kprintf+0xd0c>
    2378:	91002c01 	add	x1, x0, #0xb
    237c:	927df021 	and	x1, x1, #0xfffffffffffffff8
    2380:	f9000261 	str	x1, [x19]
    2384:	14000004 	b	2394 <kprintf+0xd18>
    2388:	f9400662 	ldr	x2, [x19, #8]
    238c:	93407c20 	sxtw	x0, w1
    2390:	8b000040 	add	x0, x2, x0
    2394:	b9400000 	ldr	w0, [x0]
    2398:	12003c00 	and	w0, w0, #0xffff
    239c:	92403c00 	and	x0, x0, #0xffff
    23a0:	14000017 	b	23fc <kprintf+0xd80>
    23a4:	b9401a61 	ldr	w1, [x19, #24]
    23a8:	f9400260 	ldr	x0, [x19]
    23ac:	7100003f 	cmp	w1, #0x0
    23b0:	540000ab 	b.lt	23c4 <kprintf+0xd48>  // b.tstop
    23b4:	91002c01 	add	x1, x0, #0xb
    23b8:	927df021 	and	x1, x1, #0xfffffffffffffff8
    23bc:	f9000261 	str	x1, [x19]
    23c0:	1400000d 	b	23f4 <kprintf+0xd78>
    23c4:	11002022 	add	w2, w1, #0x8
    23c8:	b9001a62 	str	w2, [x19, #24]
    23cc:	b9401a62 	ldr	w2, [x19, #24]
    23d0:	7100005f 	cmp	w2, #0x0
    23d4:	540000ad 	b.le	23e8 <kprintf+0xd6c>
    23d8:	91002c01 	add	x1, x0, #0xb
    23dc:	927df021 	and	x1, x1, #0xfffffffffffffff8
    23e0:	f9000261 	str	x1, [x19]
    23e4:	14000004 	b	23f4 <kprintf+0xd78>
    23e8:	f9400662 	ldr	x2, [x19, #8]
    23ec:	93407c20 	sxtw	x0, w1
    23f0:	8b000040 	add	x0, x2, x0
    23f4:	b9400000 	ldr	w0, [x0]
    23f8:	2a0003e0 	mov	w0, w0
/home/hfut/phytium-pi-os/output/build/phytium-optee-v4.6.0/optee_os/lib/libutils/ext/snprintk.c:417 (discriminator 24)
    23fc:	f90043e0 	str	x0, [sp, #128]
/home/hfut/phytium-pi-os/output/build/phytium-optee-v4.6.0/optee_os/lib/libutils/ext/snprintk.c:418 (discriminator 24)
    2400:	b90063ff 	str	wzr, [sp, #96]
/home/hfut/phytium-pi-os/output/build/phytium-optee-v4.6.0/optee_os/lib/libutils/ext/snprintk.c:419 (discriminator 24)
    2404:	1400020f 	b	2c40 <kprintf+0x15c4>
/home/hfut/phytium-pi-os/output/build/phytium-optee-v4.6.0/optee_os/lib/libutils/ext/snprintk.c:421
    2408:	3940cfe0 	ldrb	w0, [sp, #51]
    240c:	7100001f 	cmp	w0, #0x0
    2410:	54000560 	b.eq	24bc <kprintf+0xe40>  // b.none
/home/hfut/phytium-pi-os/output/build/phytium-optee-v4.6.0/optee_os/lib/libutils/ext/snprintk.c:421 (discriminator 1)
    2414:	f9403be0 	ldr	x0, [sp, #112]
    2418:	39400000 	ldrb	w0, [x0]
    241c:	7101541f 	cmp	w0, #0x55
    2420:	540004e1 	b.ne	24bc <kprintf+0xe40>  // b.any
/home/hfut/phytium-pi-os/output/build/phytium-optee-v4.6.0/optee_os/lib/libutils/ext/snprintk.c:421 (discriminator 2)
    2424:	f9403be0 	ldr	x0, [sp, #112]
    2428:	91000400 	add	x0, x0, #0x1
    242c:	39400000 	ldrb	w0, [x0]
    2430:	7101b01f 	cmp	w0, #0x6c
    2434:	54000441 	b.ne	24bc <kprintf+0xe40>  // b.any
/home/hfut/phytium-pi-os/output/build/phytium-optee-v4.6.0/optee_os/lib/libutils/ext/snprintk.c:426
    2438:	f9403be0 	ldr	x0, [sp, #112]
    243c:	91000800 	add	x0, x0, #0x2
    2440:	f9003be0 	str	x0, [sp, #112]
/home/hfut/phytium-pi-os/output/build/phytium-optee-v4.6.0/optee_os/lib/libutils/ext/snprintk.c:427
    2444:	b9401a61 	ldr	w1, [x19, #24]
    2448:	f9400260 	ldr	x0, [x19]
    244c:	7100003f 	cmp	w1, #0x0
    2450:	540000ab 	b.lt	2464 <kprintf+0xde8>  // b.tstop
    2454:	91003c01 	add	x1, x0, #0xf
    2458:	927df021 	and	x1, x1, #0xfffffffffffffff8
    245c:	f9000261 	str	x1, [x19]
    2460:	1400000d 	b	2494 <kprintf+0xe18>
    2464:	11002022 	add	w2, w1, #0x8
    2468:	b9001a62 	str	w2, [x19, #24]
    246c:	b9401a62 	ldr	w2, [x19, #24]
    2470:	7100005f 	cmp	w2, #0x0
    2474:	540000ad 	b.le	2488 <kprintf+0xe0c>
    2478:	91003c01 	add	x1, x0, #0xf
    247c:	927df021 	and	x1, x1, #0xfffffffffffffff8
    2480:	f9000261 	str	x1, [x19]
    2484:	14000004 	b	2494 <kprintf+0xe18>
    2488:	f9400662 	ldr	x2, [x19, #8]
    248c:	93407c20 	sxtw	x0, w1
    2490:	8b000040 	add	x0, x2, x0
    2494:	f9400001 	ldr	x1, [x0]
    2498:	910283e0 	add	x0, sp, #0xa0
    249c:	aa0103e2 	mov	x2, x1
    24a0:	d28004a1 	mov	x1, #0x25                  	// #37
    24a4:	97fffc3d 	bl	1598 <uuid2str>
    24a8:	b9006fe0 	str	w0, [sp, #108]
/home/hfut/phytium-pi-os/output/build/phytium-optee-v4.6.0/optee_os/lib/libutils/ext/snprintk.c:429
    24ac:	910283e0 	add	x0, sp, #0xa0
    24b0:	f9003fe0 	str	x0, [sp, #120]
/home/hfut/phytium-pi-os/output/build/phytium-optee-v4.6.0/optee_os/lib/libutils/ext/snprintk.c:430
    24b4:	39011fff 	strb	wzr, [sp, #71]
/home/hfut/phytium-pi-os/output/build/phytium-optee-v4.6.0/optee_os/lib/libutils/ext/snprintk.c:431
    24b8:	14000278 	b	2e98 <kprintf+0x181c>
/home/hfut/phytium-pi-os/output/build/phytium-optee-v4.6.0/optee_os/lib/libutils/ext/snprintk.c:441
    24bc:	b9401a61 	ldr	w1, [x19, #24]
    24c0:	f9400260 	ldr	x0, [x19]
    24c4:	7100003f 	cmp	w1, #0x0
    24c8:	540000ab 	b.lt	24dc <kprintf+0xe60>  // b.tstop
    24cc:	91003c01 	add	x1, x0, #0xf
    24d0:	927df021 	and	x1, x1, #0xfffffffffffffff8
    24d4:	f9000261 	str	x1, [x19]
    24d8:	1400000d 	b	250c <kprintf+0xe90>
    24dc:	11002022 	add	w2, w1, #0x8
    24e0:	b9001a62 	str	w2, [x19, #24]
    24e4:	b9401a62 	ldr	w2, [x19, #24]
    24e8:	7100005f 	cmp	w2, #0x0
    24ec:	540000ad 	b.le	2500 <kprintf+0xe84>
    24f0:	91003c01 	add	x1, x0, #0xf
    24f4:	927df021 	and	x1, x1, #0xfffffffffffffff8
    24f8:	f9000261 	str	x1, [x19]
    24fc:	14000004 	b	250c <kprintf+0xe90>
    2500:	f9400662 	ldr	x2, [x19, #8]
    2504:	93407c20 	sxtw	x0, w1
    2508:	8b000040 	add	x0, x2, x0
    250c:	f9400000 	ldr	x0, [x0]
    2510:	f90043e0 	str	x0, [sp, #128]
/home/hfut/phytium-pi-os/output/build/phytium-optee-v4.6.0/optee_os/lib/libutils/ext/snprintk.c:442
    2514:	52800040 	mov	w0, #0x2                   	// #2
    2518:	b90063e0 	str	w0, [sp, #96]
/home/hfut/phytium-pi-os/output/build/phytium-optee-v4.6.0/optee_os/lib/libutils/ext/snprintk.c:443
    251c:	f0000100 	adrp	x0, 25000 <__text_end+0x3a64>
    2520:	91140000 	add	x0, x0, #0x500
    2524:	f90047e0 	str	x0, [sp, #136]
/home/hfut/phytium-pi-os/output/build/phytium-optee-v4.6.0/optee_os/lib/libutils/ext/snprintk.c:444
    2528:	b94053e0 	ldr	w0, [sp, #80]
    252c:	321f0000 	orr	w0, w0, #0x2
    2530:	b90053e0 	str	w0, [sp, #80]
/home/hfut/phytium-pi-os/output/build/phytium-optee-v4.6.0/optee_os/lib/libutils/ext/snprintk.c:445
    2534:	52800f00 	mov	w0, #0x78                  	// #120
    2538:	b9004be0 	str	w0, [sp, #72]
/home/hfut/phytium-pi-os/output/build/phytium-optee-v4.6.0/optee_os/lib/libutils/ext/snprintk.c:446
    253c:	140001c1 	b	2c40 <kprintf+0x15c4>
/home/hfut/phytium-pi-os/output/build/phytium-optee-v4.6.0/optee_os/lib/libutils/ext/snprintk.c:448
    2540:	b9401a61 	ldr	w1, [x19, #24]
    2544:	f9400260 	ldr	x0, [x19]
    2548:	7100003f 	cmp	w1, #0x0
    254c:	540000ab 	b.lt	2560 <kprintf+0xee4>  // b.tstop
    2550:	91003c01 	add	x1, x0, #0xf
    2554:	927df021 	and	x1, x1, #0xfffffffffffffff8
    2558:	f9000261 	str	x1, [x19]
    255c:	1400000d 	b	2590 <kprintf+0xf14>
    2560:	11002022 	add	w2, w1, #0x8
    2564:	b9001a62 	str	w2, [x19, #24]
    2568:	b9401a62 	ldr	w2, [x19, #24]
    256c:	7100005f 	cmp	w2, #0x0
    2570:	540000ad 	b.le	2584 <kprintf+0xf08>
    2574:	91003c01 	add	x1, x0, #0xf
    2578:	927df021 	and	x1, x1, #0xfffffffffffffff8
    257c:	f9000261 	str	x1, [x19]
    2580:	14000004 	b	2590 <kprintf+0xf14>
    2584:	f9400662 	ldr	x2, [x19, #8]
    2588:	93407c20 	sxtw	x0, w1
    258c:	8b000040 	add	x0, x2, x0
    2590:	f9400000 	ldr	x0, [x0]
    2594:	f9003fe0 	str	x0, [sp, #120]
    2598:	f9403fe0 	ldr	x0, [sp, #120]
    259c:	f100001f 	cmp	x0, #0x0
    25a0:	54000081 	b.ne	25b0 <kprintf+0xf34>  // b.any
/home/hfut/phytium-pi-os/output/build/phytium-optee-v4.6.0/optee_os/lib/libutils/ext/snprintk.c:450
    25a4:	f0000100 	adrp	x0, 25000 <__text_end+0x3a64>
    25a8:	9115a000 	add	x0, x0, #0x568
    25ac:	f9003fe0 	str	x0, [sp, #120]
/home/hfut/phytium-pi-os/output/build/phytium-optee-v4.6.0/optee_os/lib/libutils/ext/snprintk.c:451
    25b0:	b9405fe0 	ldr	w0, [sp, #92]
    25b4:	7100001f 	cmp	w0, #0x0
    25b8:	5400030b 	b.lt	2618 <kprintf+0xf9c>  // b.tstop
/home/hfut/phytium-pi-os/output/build/phytium-optee-v4.6.0/optee_os/lib/libutils/ext/snprintk.c:457
    25bc:	b9805fe0 	ldrsw	x0, [sp, #92]
    25c0:	aa0003e2 	mov	x2, x0
    25c4:	52800001 	mov	w1, #0x0                   	// #0
    25c8:	f9403fe0 	ldr	x0, [sp, #120]
    25cc:	94000343 	bl	32d8 <memchr>
    25d0:	f9004fe0 	str	x0, [sp, #152]
/home/hfut/phytium-pi-os/output/build/phytium-optee-v4.6.0/optee_os/lib/libutils/ext/snprintk.c:459
    25d4:	f9404fe0 	ldr	x0, [sp, #152]
    25d8:	f100001f 	cmp	x0, #0x0
    25dc:	54000180 	b.eq	260c <kprintf+0xf90>  // b.none
/home/hfut/phytium-pi-os/output/build/phytium-optee-v4.6.0/optee_os/lib/libutils/ext/snprintk.c:460
    25e0:	f9404fe1 	ldr	x1, [sp, #152]
    25e4:	f9403fe0 	ldr	x0, [sp, #120]
    25e8:	cb000020 	sub	x0, x1, x0
    25ec:	b9006fe0 	str	w0, [sp, #108]
/home/hfut/phytium-pi-os/output/build/phytium-optee-v4.6.0/optee_os/lib/libutils/ext/snprintk.c:461
    25f0:	b9406fe1 	ldr	w1, [sp, #108]
    25f4:	b9405fe0 	ldr	w0, [sp, #92]
    25f8:	6b00003f 	cmp	w1, w0
    25fc:	5400014d 	b.le	2624 <kprintf+0xfa8>
/home/hfut/phytium-pi-os/output/build/phytium-optee-v4.6.0/optee_os/lib/libutils/ext/snprintk.c:462
    2600:	b9405fe0 	ldr	w0, [sp, #92]
    2604:	b9006fe0 	str	w0, [sp, #108]
    2608:	14000007 	b	2624 <kprintf+0xfa8>
/home/hfut/phytium-pi-os/output/build/phytium-optee-v4.6.0/optee_os/lib/libutils/ext/snprintk.c:464
    260c:	b9405fe0 	ldr	w0, [sp, #92]
    2610:	b9006fe0 	str	w0, [sp, #108]
    2614:	14000004 	b	2624 <kprintf+0xfa8>
/home/hfut/phytium-pi-os/output/build/phytium-optee-v4.6.0/optee_os/lib/libutils/ext/snprintk.c:466
    2618:	f9403fe0 	ldr	x0, [sp, #120]
    261c:	9400039d 	bl	3490 <strlen>
    2620:	b9006fe0 	str	w0, [sp, #108]
/home/hfut/phytium-pi-os/output/build/phytium-optee-v4.6.0/optee_os/lib/libutils/ext/snprintk.c:467
    2624:	39011fff 	strb	wzr, [sp, #71]
/home/hfut/phytium-pi-os/output/build/phytium-optee-v4.6.0/optee_os/lib/libutils/ext/snprintk.c:468
    2628:	1400021c 	b	2e98 <kprintf+0x181c>
/home/hfut/phytium-pi-os/output/build/phytium-optee-v4.6.0/optee_os/lib/libutils/ext/snprintk.c:470
    262c:	b94053e0 	ldr	w0, [sp, #80]
    2630:	321c0000 	orr	w0, w0, #0x10
    2634:	b90053e0 	str	w0, [sp, #80]
/home/hfut/phytium-pi-os/output/build/phytium-optee-v4.6.0/optee_os/lib/libutils/ext/snprintk.c:473
    2638:	b94053e0 	ldr	w0, [sp, #80]
    263c:	12190000 	and	w0, w0, #0x80
    2640:	7100001f 	cmp	w0, #0x0
    2644:	540002e0 	b.eq	26a0 <kprintf+0x1024>  // b.none
    2648:	b9401a61 	ldr	w1, [x19, #24]
    264c:	f9400260 	ldr	x0, [x19]
    2650:	7100003f 	cmp	w1, #0x0
    2654:	540000ab 	b.lt	2668 <kprintf+0xfec>  // b.tstop
    2658:	91003c01 	add	x1, x0, #0xf
    265c:	927df021 	and	x1, x1, #0xfffffffffffffff8
    2660:	f9000261 	str	x1, [x19]
    2664:	1400000d 	b	2698 <kprintf+0x101c>
    2668:	11002022 	add	w2, w1, #0x8
    266c:	b9001a62 	str	w2, [x19, #24]
    2670:	b9401a62 	ldr	w2, [x19, #24]
    2674:	7100005f 	cmp	w2, #0x0
    2678:	540000ad 	b.le	268c <kprintf+0x1010>
    267c:	91003c01 	add	x1, x0, #0xf
    2680:	927df021 	and	x1, x1, #0xfffffffffffffff8
    2684:	f9000261 	str	x1, [x19]
    2688:	14000004 	b	2698 <kprintf+0x101c>
    268c:	f9400662 	ldr	x2, [x19, #8]
    2690:	93407c20 	sxtw	x0, w1
    2694:	8b000040 	add	x0, x2, x0
    2698:	f9400000 	ldr	x0, [x0]
    269c:	1400009b 	b	2908 <kprintf+0x128c>
/home/hfut/phytium-pi-os/output/build/phytium-optee-v4.6.0/optee_os/lib/libutils/ext/snprintk.c:473 (discriminator 2)
    26a0:	b94053e0 	ldr	w0, [sp, #80]
    26a4:	12180000 	and	w0, w0, #0x100
    26a8:	7100001f 	cmp	w0, #0x0
    26ac:	540002e0 	b.eq	2708 <kprintf+0x108c>  // b.none
/home/hfut/phytium-pi-os/output/build/phytium-optee-v4.6.0/optee_os/lib/libutils/ext/snprintk.c:473
    26b0:	b9401a61 	ldr	w1, [x19, #24]
    26b4:	f9400260 	ldr	x0, [x19]
    26b8:	7100003f 	cmp	w1, #0x0
    26bc:	540000ab 	b.lt	26d0 <kprintf+0x1054>  // b.tstop
    26c0:	91003c01 	add	x1, x0, #0xf
    26c4:	927df021 	and	x1, x1, #0xfffffffffffffff8
    26c8:	f9000261 	str	x1, [x19]
    26cc:	1400000d 	b	2700 <kprintf+0x1084>
    26d0:	11002022 	add	w2, w1, #0x8
    26d4:	b9001a62 	str	w2, [x19, #24]
    26d8:	b9401a62 	ldr	w2, [x19, #24]
    26dc:	7100005f 	cmp	w2, #0x0
    26e0:	540000ad 	b.le	26f4 <kprintf+0x1078>
    26e4:	91003c01 	add	x1, x0, #0xf
    26e8:	927df021 	and	x1, x1, #0xfffffffffffffff8
    26ec:	f9000261 	str	x1, [x19]
    26f0:	14000004 	b	2700 <kprintf+0x1084>
    26f4:	f9400662 	ldr	x2, [x19, #8]
    26f8:	93407c20 	sxtw	x0, w1
    26fc:	8b000040 	add	x0, x2, x0
    2700:	f9400000 	ldr	x0, [x0]
    2704:	14000081 	b	2908 <kprintf+0x128c>
/home/hfut/phytium-pi-os/output/build/phytium-optee-v4.6.0/optee_os/lib/libutils/ext/snprintk.c:473 (discriminator 5)
    2708:	b94053e0 	ldr	w0, [sp, #80]
    270c:	12170000 	and	w0, w0, #0x200
    2710:	7100001f 	cmp	w0, #0x0
    2714:	540002e0 	b.eq	2770 <kprintf+0x10f4>  // b.none
/home/hfut/phytium-pi-os/output/build/phytium-optee-v4.6.0/optee_os/lib/libutils/ext/snprintk.c:473
    2718:	b9401a61 	ldr	w1, [x19, #24]
    271c:	f9400260 	ldr	x0, [x19]
    2720:	7100003f 	cmp	w1, #0x0
    2724:	540000ab 	b.lt	2738 <kprintf+0x10bc>  // b.tstop
    2728:	91003c01 	add	x1, x0, #0xf
    272c:	927df021 	and	x1, x1, #0xfffffffffffffff8
    2730:	f9000261 	str	x1, [x19]
    2734:	1400000d 	b	2768 <kprintf+0x10ec>
    2738:	11002022 	add	w2, w1, #0x8
    273c:	b9001a62 	str	w2, [x19, #24]
    2740:	b9401a62 	ldr	w2, [x19, #24]
    2744:	7100005f 	cmp	w2, #0x0
    2748:	540000ad 	b.le	275c <kprintf+0x10e0>
    274c:	91003c01 	add	x1, x0, #0xf
    2750:	927df021 	and	x1, x1, #0xfffffffffffffff8
    2754:	f9000261 	str	x1, [x19]
    2758:	14000004 	b	2768 <kprintf+0x10ec>
    275c:	f9400662 	ldr	x2, [x19, #8]
    2760:	93407c20 	sxtw	x0, w1
    2764:	8b000040 	add	x0, x2, x0
    2768:	f9400000 	ldr	x0, [x0]
    276c:	14000067 	b	2908 <kprintf+0x128c>
/home/hfut/phytium-pi-os/output/build/phytium-optee-v4.6.0/optee_os/lib/libutils/ext/snprintk.c:473 (discriminator 8)
    2770:	b94053e0 	ldr	w0, [sp, #80]
    2774:	121b0000 	and	w0, w0, #0x20
    2778:	7100001f 	cmp	w0, #0x0
    277c:	540002e0 	b.eq	27d8 <kprintf+0x115c>  // b.none
/home/hfut/phytium-pi-os/output/build/phytium-optee-v4.6.0/optee_os/lib/libutils/ext/snprintk.c:473
    2780:	b9401a61 	ldr	w1, [x19, #24]
    2784:	f9400260 	ldr	x0, [x19]
    2788:	7100003f 	cmp	w1, #0x0
    278c:	540000ab 	b.lt	27a0 <kprintf+0x1124>  // b.tstop
    2790:	91003c01 	add	x1, x0, #0xf
    2794:	927df021 	and	x1, x1, #0xfffffffffffffff8
    2798:	f9000261 	str	x1, [x19]
    279c:	1400000d 	b	27d0 <kprintf+0x1154>
    27a0:	11002022 	add	w2, w1, #0x8
    27a4:	b9001a62 	str	w2, [x19, #24]
    27a8:	b9401a62 	ldr	w2, [x19, #24]
    27ac:	7100005f 	cmp	w2, #0x0
    27b0:	540000ad 	b.le	27c4 <kprintf+0x1148>
    27b4:	91003c01 	add	x1, x0, #0xf
    27b8:	927df021 	and	x1, x1, #0xfffffffffffffff8
    27bc:	f9000261 	str	x1, [x19]
    27c0:	14000004 	b	27d0 <kprintf+0x1154>
    27c4:	f9400662 	ldr	x2, [x19, #8]
    27c8:	93407c20 	sxtw	x0, w1
    27cc:	8b000040 	add	x0, x2, x0
    27d0:	f9400000 	ldr	x0, [x0]
    27d4:	1400004d 	b	2908 <kprintf+0x128c>
/home/hfut/phytium-pi-os/output/build/phytium-optee-v4.6.0/optee_os/lib/libutils/ext/snprintk.c:473 (discriminator 11)
    27d8:	b94053e0 	ldr	w0, [sp, #80]
    27dc:	121c0000 	and	w0, w0, #0x10
    27e0:	7100001f 	cmp	w0, #0x0
    27e4:	540002e0 	b.eq	2840 <kprintf+0x11c4>  // b.none
/home/hfut/phytium-pi-os/output/build/phytium-optee-v4.6.0/optee_os/lib/libutils/ext/snprintk.c:473
    27e8:	b9401a61 	ldr	w1, [x19, #24]
    27ec:	f9400260 	ldr	x0, [x19]
    27f0:	7100003f 	cmp	w1, #0x0
    27f4:	540000ab 	b.lt	2808 <kprintf+0x118c>  // b.tstop
    27f8:	91003c01 	add	x1, x0, #0xf
    27fc:	927df021 	and	x1, x1, #0xfffffffffffffff8
    2800:	f9000261 	str	x1, [x19]
    2804:	1400000d 	b	2838 <kprintf+0x11bc>
    2808:	11002022 	add	w2, w1, #0x8
    280c:	b9001a62 	str	w2, [x19, #24]
    2810:	b9401a62 	ldr	w2, [x19, #24]
    2814:	7100005f 	cmp	w2, #0x0
    2818:	540000ad 	b.le	282c <kprintf+0x11b0>
    281c:	91003c01 	add	x1, x0, #0xf
    2820:	927df021 	and	x1, x1, #0xfffffffffffffff8
    2824:	f9000261 	str	x1, [x19]
    2828:	14000004 	b	2838 <kprintf+0x11bc>
    282c:	f9400662 	ldr	x2, [x19, #8]
    2830:	93407c20 	sxtw	x0, w1
    2834:	8b000040 	add	x0, x2, x0
    2838:	f9400000 	ldr	x0, [x0]
    283c:	14000033 	b	2908 <kprintf+0x128c>
/home/hfut/phytium-pi-os/output/build/phytium-optee-v4.6.0/optee_os/lib/libutils/ext/snprintk.c:473 (discriminator 14)
    2840:	b94053e0 	ldr	w0, [sp, #80]
    2844:	121a0000 	and	w0, w0, #0x40
    2848:	7100001f 	cmp	w0, #0x0
    284c:	54000320 	b.eq	28b0 <kprintf+0x1234>  // b.none
/home/hfut/phytium-pi-os/output/build/phytium-optee-v4.6.0/optee_os/lib/libutils/ext/snprintk.c:473
    2850:	b9401a61 	ldr	w1, [x19, #24]
    2854:	f9400260 	ldr	x0, [x19]
    2858:	7100003f 	cmp	w1, #0x0
    285c:	540000ab 	b.lt	2870 <kprintf+0x11f4>  // b.tstop
    2860:	91002c01 	add	x1, x0, #0xb
    2864:	927df021 	and	x1, x1, #0xfffffffffffffff8
    2868:	f9000261 	str	x1, [x19]
    286c:	1400000d 	b	28a0 <kprintf+0x1224>
    2870:	11002022 	add	w2, w1, #0x8
    2874:	b9001a62 	str	w2, [x19, #24]
    2878:	b9401a62 	ldr	w2, [x19, #24]
    287c:	7100005f 	cmp	w2, #0x0
    2880:	540000ad 	b.le	2894 <kprintf+0x1218>
    2884:	91002c01 	add	x1, x0, #0xb
    2888:	927df021 	and	x1, x1, #0xfffffffffffffff8
    288c:	f9000261 	str	x1, [x19]
    2890:	14000004 	b	28a0 <kprintf+0x1224>
    2894:	f9400662 	ldr	x2, [x19, #8]
    2898:	93407c20 	sxtw	x0, w1
    289c:	8b000040 	add	x0, x2, x0
    28a0:	b9400000 	ldr	w0, [x0]
    28a4:	12003c00 	and	w0, w0, #0xffff
    28a8:	92403c00 	and	x0, x0, #0xffff
    28ac:	14000017 	b	2908 <kprintf+0x128c>
    28b0:	b9401a61 	ldr	w1, [x19, #24]
    28b4:	f9400260 	ldr	x0, [x19]
    28b8:	7100003f 	cmp	w1, #0x0
    28bc:	540000ab 	b.lt	28d0 <kprintf+0x1254>  // b.tstop
    28c0:	91002c01 	add	x1, x0, #0xb
    28c4:	927df021 	and	x1, x1, #0xfffffffffffffff8
    28c8:	f9000261 	str	x1, [x19]
    28cc:	1400000d 	b	2900 <kprintf+0x1284>
    28d0:	11002022 	add	w2, w1, #0x8
    28d4:	b9001a62 	str	w2, [x19, #24]
    28d8:	b9401a62 	ldr	w2, [x19, #24]
    28dc:	7100005f 	cmp	w2, #0x0
    28e0:	540000ad 	b.le	28f4 <kprintf+0x1278>
    28e4:	91002c01 	add	x1, x0, #0xb
    28e8:	927df021 	and	x1, x1, #0xfffffffffffffff8
    28ec:	f9000261 	str	x1, [x19]
    28f0:	14000004 	b	2900 <kprintf+0x1284>
    28f4:	f9400662 	ldr	x2, [x19, #8]
    28f8:	93407c20 	sxtw	x0, w1
    28fc:	8b000040 	add	x0, x2, x0
    2900:	b9400000 	ldr	w0, [x0]
    2904:	2a0003e0 	mov	w0, w0
/home/hfut/phytium-pi-os/output/build/phytium-optee-v4.6.0/optee_os/lib/libutils/ext/snprintk.c:473 (discriminator 24)
    2908:	f90043e0 	str	x0, [sp, #128]
/home/hfut/phytium-pi-os/output/build/phytium-optee-v4.6.0/optee_os/lib/libutils/ext/snprintk.c:474 (discriminator 24)
    290c:	52800020 	mov	w0, #0x1                   	// #1
    2910:	b90063e0 	str	w0, [sp, #96]
/home/hfut/phytium-pi-os/output/build/phytium-optee-v4.6.0/optee_os/lib/libutils/ext/snprintk.c:475 (discriminator 24)
    2914:	140000cb 	b	2c40 <kprintf+0x15c4>
/home/hfut/phytium-pi-os/output/build/phytium-optee-v4.6.0/optee_os/lib/libutils/ext/snprintk.c:477
    2918:	f0000100 	adrp	x0, 25000 <__text_end+0x3a64>
    291c:	91146000 	add	x0, x0, #0x518
    2920:	f90047e0 	str	x0, [sp, #136]
/home/hfut/phytium-pi-os/output/build/phytium-optee-v4.6.0/optee_os/lib/libutils/ext/snprintk.c:478
    2924:	14000004 	b	2934 <kprintf+0x12b8>
/home/hfut/phytium-pi-os/output/build/phytium-optee-v4.6.0/optee_os/lib/libutils/ext/snprintk.c:480
    2928:	f0000100 	adrp	x0, 25000 <__text_end+0x3a64>
    292c:	91140000 	add	x0, x0, #0x500
    2930:	f90047e0 	str	x0, [sp, #136]
/home/hfut/phytium-pi-os/output/build/phytium-optee-v4.6.0/optee_os/lib/libutils/ext/snprintk.c:481
    2934:	b94053e0 	ldr	w0, [sp, #80]
    2938:	12190000 	and	w0, w0, #0x80
    293c:	7100001f 	cmp	w0, #0x0
    2940:	540002e0 	b.eq	299c <kprintf+0x1320>  // b.none
    2944:	b9401a61 	ldr	w1, [x19, #24]
    2948:	f9400260 	ldr	x0, [x19]
    294c:	7100003f 	cmp	w1, #0x0
    2950:	540000ab 	b.lt	2964 <kprintf+0x12e8>  // b.tstop
    2954:	91003c01 	add	x1, x0, #0xf
    2958:	927df021 	and	x1, x1, #0xfffffffffffffff8
    295c:	f9000261 	str	x1, [x19]
    2960:	1400000d 	b	2994 <kprintf+0x1318>
    2964:	11002022 	add	w2, w1, #0x8
    2968:	b9001a62 	str	w2, [x19, #24]
    296c:	b9401a62 	ldr	w2, [x19, #24]
    2970:	7100005f 	cmp	w2, #0x0
    2974:	540000ad 	b.le	2988 <kprintf+0x130c>
    2978:	91003c01 	add	x1, x0, #0xf
    297c:	927df021 	and	x1, x1, #0xfffffffffffffff8
    2980:	f9000261 	str	x1, [x19]
    2984:	14000004 	b	2994 <kprintf+0x1318>
    2988:	f9400662 	ldr	x2, [x19, #8]
    298c:	93407c20 	sxtw	x0, w1
    2990:	8b000040 	add	x0, x2, x0
    2994:	f9400000 	ldr	x0, [x0]
    2998:	1400009b 	b	2c04 <kprintf+0x1588>
/home/hfut/phytium-pi-os/output/build/phytium-optee-v4.6.0/optee_os/lib/libutils/ext/snprintk.c:481 (discriminator 2)
    299c:	b94053e0 	ldr	w0, [sp, #80]
    29a0:	12180000 	and	w0, w0, #0x100
    29a4:	7100001f 	cmp	w0, #0x0
    29a8:	540002e0 	b.eq	2a04 <kprintf+0x1388>  // b.none
/home/hfut/phytium-pi-os/output/build/phytium-optee-v4.6.0/optee_os/lib/libutils/ext/snprintk.c:481
    29ac:	b9401a61 	ldr	w1, [x19, #24]
    29b0:	f9400260 	ldr	x0, [x19]
    29b4:	7100003f 	cmp	w1, #0x0
    29b8:	540000ab 	b.lt	29cc <kprintf+0x1350>  // b.tstop
    29bc:	91003c01 	add	x1, x0, #0xf
    29c0:	927df021 	and	x1, x1, #0xfffffffffffffff8
    29c4:	f9000261 	str	x1, [x19]
    29c8:	1400000d 	b	29fc <kprintf+0x1380>
    29cc:	11002022 	add	w2, w1, #0x8
    29d0:	b9001a62 	str	w2, [x19, #24]
    29d4:	b9401a62 	ldr	w2, [x19, #24]
    29d8:	7100005f 	cmp	w2, #0x0
    29dc:	540000ad 	b.le	29f0 <kprintf+0x1374>
    29e0:	91003c01 	add	x1, x0, #0xf
    29e4:	927df021 	and	x1, x1, #0xfffffffffffffff8
    29e8:	f9000261 	str	x1, [x19]
    29ec:	14000004 	b	29fc <kprintf+0x1380>
    29f0:	f9400662 	ldr	x2, [x19, #8]
    29f4:	93407c20 	sxtw	x0, w1
    29f8:	8b000040 	add	x0, x2, x0
    29fc:	f9400000 	ldr	x0, [x0]
    2a00:	14000081 	b	2c04 <kprintf+0x1588>
/home/hfut/phytium-pi-os/output/build/phytium-optee-v4.6.0/optee_os/lib/libutils/ext/snprintk.c:481 (discriminator 5)
    2a04:	b94053e0 	ldr	w0, [sp, #80]
    2a08:	12170000 	and	w0, w0, #0x200
    2a0c:	7100001f 	cmp	w0, #0x0
    2a10:	540002e0 	b.eq	2a6c <kprintf+0x13f0>  // b.none
/home/hfut/phytium-pi-os/output/build/phytium-optee-v4.6.0/optee_os/lib/libutils/ext/snprintk.c:481
    2a14:	b9401a61 	ldr	w1, [x19, #24]
    2a18:	f9400260 	ldr	x0, [x19]
    2a1c:	7100003f 	cmp	w1, #0x0
    2a20:	540000ab 	b.lt	2a34 <kprintf+0x13b8>  // b.tstop
    2a24:	91003c01 	add	x1, x0, #0xf
    2a28:	927df021 	and	x1, x1, #0xfffffffffffffff8
    2a2c:	f9000261 	str	x1, [x19]
    2a30:	1400000d 	b	2a64 <kprintf+0x13e8>
    2a34:	11002022 	add	w2, w1, #0x8
    2a38:	b9001a62 	str	w2, [x19, #24]
    2a3c:	b9401a62 	ldr	w2, [x19, #24]
    2a40:	7100005f 	cmp	w2, #0x0
    2a44:	540000ad 	b.le	2a58 <kprintf+0x13dc>
    2a48:	91003c01 	add	x1, x0, #0xf
    2a4c:	927df021 	and	x1, x1, #0xfffffffffffffff8
    2a50:	f9000261 	str	x1, [x19]
    2a54:	14000004 	b	2a64 <kprintf+0x13e8>
    2a58:	f9400662 	ldr	x2, [x19, #8]
    2a5c:	93407c20 	sxtw	x0, w1
    2a60:	8b000040 	add	x0, x2, x0
    2a64:	f9400000 	ldr	x0, [x0]
    2a68:	14000067 	b	2c04 <kprintf+0x1588>
/home/hfut/phytium-pi-os/output/build/phytium-optee-v4.6.0/optee_os/lib/libutils/ext/snprintk.c:481 (discriminator 8)
    2a6c:	b94053e0 	ldr	w0, [sp, #80]
    2a70:	121b0000 	and	w0, w0, #0x20
    2a74:	7100001f 	cmp	w0, #0x0
    2a78:	540002e0 	b.eq	2ad4 <kprintf+0x1458>  // b.none
/home/hfut/phytium-pi-os/output/build/phytium-optee-v4.6.0/optee_os/lib/libutils/ext/snprintk.c:481
    2a7c:	b9401a61 	ldr	w1, [x19, #24]
    2a80:	f9400260 	ldr	x0, [x19]
    2a84:	7100003f 	cmp	w1, #0x0
    2a88:	540000ab 	b.lt	2a9c <kprintf+0x1420>  // b.tstop
    2a8c:	91003c01 	add	x1, x0, #0xf
    2a90:	927df021 	and	x1, x1, #0xfffffffffffffff8
    2a94:	f9000261 	str	x1, [x19]
    2a98:	1400000d 	b	2acc <kprintf+0x1450>
    2a9c:	11002022 	add	w2, w1, #0x8
    2aa0:	b9001a62 	str	w2, [x19, #24]
    2aa4:	b9401a62 	ldr	w2, [x19, #24]
    2aa8:	7100005f 	cmp	w2, #0x0
    2aac:	540000ad 	b.le	2ac0 <kprintf+0x1444>
    2ab0:	91003c01 	add	x1, x0, #0xf
    2ab4:	927df021 	and	x1, x1, #0xfffffffffffffff8
    2ab8:	f9000261 	str	x1, [x19]
    2abc:	14000004 	b	2acc <kprintf+0x1450>
    2ac0:	f9400662 	ldr	x2, [x19, #8]
    2ac4:	93407c20 	sxtw	x0, w1
    2ac8:	8b000040 	add	x0, x2, x0
    2acc:	f9400000 	ldr	x0, [x0]
    2ad0:	1400004d 	b	2c04 <kprintf+0x1588>
/home/hfut/phytium-pi-os/output/build/phytium-optee-v4.6.0/optee_os/lib/libutils/ext/snprintk.c:481 (discriminator 11)
    2ad4:	b94053e0 	ldr	w0, [sp, #80]
    2ad8:	121c0000 	and	w0, w0, #0x10
    2adc:	7100001f 	cmp	w0, #0x0
    2ae0:	540002e0 	b.eq	2b3c <kprintf+0x14c0>  // b.none
/home/hfut/phytium-pi-os/output/build/phytium-optee-v4.6.0/optee_os/lib/libutils/ext/snprintk.c:481
    2ae4:	b9401a61 	ldr	w1, [x19, #24]
    2ae8:	f9400260 	ldr	x0, [x19]
    2aec:	7100003f 	cmp	w1, #0x0
    2af0:	540000ab 	b.lt	2b04 <kprintf+0x1488>  // b.tstop
    2af4:	91003c01 	add	x1, x0, #0xf
    2af8:	927df021 	and	x1, x1, #0xfffffffffffffff8
    2afc:	f9000261 	str	x1, [x19]
    2b00:	1400000d 	b	2b34 <kprintf+0x14b8>
    2b04:	11002022 	add	w2, w1, #0x8
    2b08:	b9001a62 	str	w2, [x19, #24]
    2b0c:	b9401a62 	ldr	w2, [x19, #24]
    2b10:	7100005f 	cmp	w2, #0x0
    2b14:	540000ad 	b.le	2b28 <kprintf+0x14ac>
    2b18:	91003c01 	add	x1, x0, #0xf
    2b1c:	927df021 	and	x1, x1, #0xfffffffffffffff8
    2b20:	f9000261 	str	x1, [x19]
    2b24:	14000004 	b	2b34 <kprintf+0x14b8>
    2b28:	f9400662 	ldr	x2, [x19, #8]
    2b2c:	93407c20 	sxtw	x0, w1
    2b30:	8b000040 	add	x0, x2, x0
    2b34:	f9400000 	ldr	x0, [x0]
    2b38:	14000033 	b	2c04 <kprintf+0x1588>
/home/hfut/phytium-pi-os/output/build/phytium-optee-v4.6.0/optee_os/lib/libutils/ext/snprintk.c:481 (discriminator 14)
    2b3c:	b94053e0 	ldr	w0, [sp, #80]
    2b40:	121a0000 	and	w0, w0, #0x40
    2b44:	7100001f 	cmp	w0, #0x0
    2b48:	54000320 	b.eq	2bac <kprintf+0x1530>  // b.none
/home/hfut/phytium-pi-os/output/build/phytium-optee-v4.6.0/optee_os/lib/libutils/ext/snprintk.c:481
    2b4c:	b9401a61 	ldr	w1, [x19, #24]
    2b50:	f9400260 	ldr	x0, [x19]
    2b54:	7100003f 	cmp	w1, #0x0
    2b58:	540000ab 	b.lt	2b6c <kprintf+0x14f0>  // b.tstop
    2b5c:	91002c01 	add	x1, x0, #0xb
    2b60:	927df021 	and	x1, x1, #0xfffffffffffffff8
    2b64:	f9000261 	str	x1, [x19]
    2b68:	1400000d 	b	2b9c <kprintf+0x1520>
    2b6c:	11002022 	add	w2, w1, #0x8
    2b70:	b9001a62 	str	w2, [x19, #24]
    2b74:	b9401a62 	ldr	w2, [x19, #24]
    2b78:	7100005f 	cmp	w2, #0x0
    2b7c:	540000ad 	b.le	2b90 <kprintf+0x1514>
    2b80:	91002c01 	add	x1, x0, #0xb
    2b84:	927df021 	and	x1, x1, #0xfffffffffffffff8
    2b88:	f9000261 	str	x1, [x19]
    2b8c:	14000004 	b	2b9c <kprintf+0x1520>
    2b90:	f9400662 	ldr	x2, [x19, #8]
    2b94:	93407c20 	sxtw	x0, w1
    2b98:	8b000040 	add	x0, x2, x0
    2b9c:	b9400000 	ldr	w0, [x0]
    2ba0:	12003c00 	and	w0, w0, #0xffff
    2ba4:	92403c00 	and	x0, x0, #0xffff
    2ba8:	14000017 	b	2c04 <kprintf+0x1588>
    2bac:	b9401a61 	ldr	w1, [x19, #24]
    2bb0:	f9400260 	ldr	x0, [x19]
    2bb4:	7100003f 	cmp	w1, #0x0
    2bb8:	540000ab 	b.lt	2bcc <kprintf+0x1550>  // b.tstop
    2bbc:	91002c01 	add	x1, x0, #0xb
    2bc0:	927df021 	and	x1, x1, #0xfffffffffffffff8
    2bc4:	f9000261 	str	x1, [x19]
    2bc8:	1400000d 	b	2bfc <kprintf+0x1580>
    2bcc:	11002022 	add	w2, w1, #0x8
    2bd0:	b9001a62 	str	w2, [x19, #24]
    2bd4:	b9401a62 	ldr	w2, [x19, #24]
    2bd8:	7100005f 	cmp	w2, #0x0
    2bdc:	540000ad 	b.le	2bf0 <kprintf+0x1574>
    2be0:	91002c01 	add	x1, x0, #0xb
    2be4:	927df021 	and	x1, x1, #0xfffffffffffffff8
    2be8:	f9000261 	str	x1, [x19]
    2bec:	14000004 	b	2bfc <kprintf+0x1580>
    2bf0:	f9400662 	ldr	x2, [x19, #8]
    2bf4:	93407c20 	sxtw	x0, w1
    2bf8:	8b000040 	add	x0, x2, x0
    2bfc:	b9400000 	ldr	w0, [x0]
    2c00:	2a0003e0 	mov	w0, w0
/home/hfut/phytium-pi-os/output/build/phytium-optee-v4.6.0/optee_os/lib/libutils/ext/snprintk.c:481 (discriminator 24)
    2c04:	f90043e0 	str	x0, [sp, #128]
/home/hfut/phytium-pi-os/output/build/phytium-optee-v4.6.0/optee_os/lib/libutils/ext/snprintk.c:482 (discriminator 24)
    2c08:	52800040 	mov	w0, #0x2                   	// #2
    2c0c:	b90063e0 	str	w0, [sp, #96]
/home/hfut/phytium-pi-os/output/build/phytium-optee-v4.6.0/optee_os/lib/libutils/ext/snprintk.c:484 (discriminator 24)
    2c10:	b94053e0 	ldr	w0, [sp, #80]
    2c14:	12000000 	and	w0, w0, #0x1
    2c18:	7100001f 	cmp	w0, #0x0
    2c1c:	54000100 	b.eq	2c3c <kprintf+0x15c0>  // b.none
/home/hfut/phytium-pi-os/output/build/phytium-optee-v4.6.0/optee_os/lib/libutils/ext/snprintk.c:484 (discriminator 1)
    2c20:	f94043e0 	ldr	x0, [sp, #128]
    2c24:	f100001f 	cmp	x0, #0x0
    2c28:	540000a0 	b.eq	2c3c <kprintf+0x15c0>  // b.none
/home/hfut/phytium-pi-os/output/build/phytium-optee-v4.6.0/optee_os/lib/libutils/ext/snprintk.c:485
    2c2c:	b94053e0 	ldr	w0, [sp, #80]
    2c30:	321f0000 	orr	w0, w0, #0x2
    2c34:	b90053e0 	str	w0, [sp, #80]
    2c38:	14000002 	b	2c40 <kprintf+0x15c4>
/home/hfut/phytium-pi-os/output/build/phytium-optee-v4.6.0/optee_os/lib/libutils/ext/snprintk.c:488
    2c3c:	d503201f 	nop
    2c40:	39011fff 	strb	wzr, [sp, #71]
/home/hfut/phytium-pi-os/output/build/phytium-optee-v4.6.0/optee_os/lib/libutils/ext/snprintk.c:494
    2c44:	b9405fe0 	ldr	w0, [sp, #92]
    2c48:	b90067e0 	str	w0, [sp, #100]
    2c4c:	b94067e0 	ldr	w0, [sp, #100]
    2c50:	7100001f 	cmp	w0, #0x0
    2c54:	5400008b 	b.lt	2c64 <kprintf+0x15e8>  // b.tstop
/home/hfut/phytium-pi-os/output/build/phytium-optee-v4.6.0/optee_os/lib/libutils/ext/snprintk.c:495
    2c58:	b94053e0 	ldr	w0, [sp, #80]
    2c5c:	12157800 	and	w0, w0, #0xfffffbff
    2c60:	b90053e0 	str	w0, [sp, #80]
/home/hfut/phytium-pi-os/output/build/phytium-optee-v4.6.0/optee_os/lib/libutils/ext/snprintk.c:502
    2c64:	910283e0 	add	x0, sp, #0xa0
    2c68:	91009400 	add	x0, x0, #0x25
    2c6c:	f9003fe0 	str	x0, [sp, #120]
/home/hfut/phytium-pi-os/output/build/phytium-optee-v4.6.0/optee_os/lib/libutils/ext/snprintk.c:503
    2c70:	f94043e0 	ldr	x0, [sp, #128]
    2c74:	f100001f 	cmp	x0, #0x0
    2c78:	54000081 	b.ne	2c88 <kprintf+0x160c>  // b.any
/home/hfut/phytium-pi-os/output/build/phytium-optee-v4.6.0/optee_os/lib/libutils/ext/snprintk.c:503 (discriminator 1)
    2c7c:	b9405fe0 	ldr	w0, [sp, #92]
    2c80:	7100001f 	cmp	w0, #0x0
    2c84:	54000e40 	b.eq	2e4c <kprintf+0x17d0>  // b.none
    2c88:	b94063e0 	ldr	w0, [sp, #96]
    2c8c:	7100081f 	cmp	w0, #0x2
    2c90:	54000a40 	b.eq	2dd8 <kprintf+0x175c>  // b.none
    2c94:	b94063e0 	ldr	w0, [sp, #96]
    2c98:	7100081f 	cmp	w0, #0x2
    2c9c:	54000c28 	b.hi	2e20 <kprintf+0x17a4>  // b.pmore
    2ca0:	b94063e0 	ldr	w0, [sp, #96]
    2ca4:	7100001f 	cmp	w0, #0x0
    2ca8:	540000a0 	b.eq	2cbc <kprintf+0x1640>  // b.none
    2cac:	b94063e0 	ldr	w0, [sp, #96]
    2cb0:	7100041f 	cmp	w0, #0x1
    2cb4:	54000780 	b.eq	2da4 <kprintf+0x1728>  // b.none
    2cb8:	1400005a 	b	2e20 <kprintf+0x17a4>
/home/hfut/phytium-pi-os/output/build/phytium-optee-v4.6.0/optee_os/lib/libutils/ext/snprintk.c:512 (discriminator 1)
    2cbc:	f94043e0 	ldr	x0, [sp, #128]
    2cc0:	12001c00 	and	w0, w0, #0xff
    2cc4:	12000800 	and	w0, w0, #0x7
    2cc8:	12001c00 	and	w0, w0, #0xff
    2ccc:	f9403fe1 	ldr	x1, [sp, #120]
    2cd0:	d1000421 	sub	x1, x1, #0x1
    2cd4:	f9003fe1 	str	x1, [sp, #120]
    2cd8:	1100c000 	add	w0, w0, #0x30
    2cdc:	12001c01 	and	w1, w0, #0xff
    2ce0:	f9403fe0 	ldr	x0, [sp, #120]
    2ce4:	39000001 	strb	w1, [x0]
/home/hfut/phytium-pi-os/output/build/phytium-optee-v4.6.0/optee_os/lib/libutils/ext/snprintk.c:513 (discriminator 1)
    2ce8:	f94043e0 	ldr	x0, [sp, #128]
    2cec:	d343fc00 	lsr	x0, x0, #3
    2cf0:	f90043e0 	str	x0, [sp, #128]
/home/hfut/phytium-pi-os/output/build/phytium-optee-v4.6.0/optee_os/lib/libutils/ext/snprintk.c:514 (discriminator 1)
    2cf4:	f94043e0 	ldr	x0, [sp, #128]
    2cf8:	f100001f 	cmp	x0, #0x0
    2cfc:	54000060 	b.eq	2d08 <kprintf+0x168c>  // b.none
/home/hfut/phytium-pi-os/output/build/phytium-optee-v4.6.0/optee_os/lib/libutils/ext/snprintk.c:510
    2d00:	d503201f 	nop
    2d04:	17ffffee 	b	2cbc <kprintf+0x1640>
/home/hfut/phytium-pi-os/output/build/phytium-optee-v4.6.0/optee_os/lib/libutils/ext/snprintk.c:516
    2d08:	b94053e0 	ldr	w0, [sp, #80]
    2d0c:	12000000 	and	w0, w0, #0x1
    2d10:	7100001f 	cmp	w0, #0x0
    2d14:	54000960 	b.eq	2e40 <kprintf+0x17c4>  // b.none
/home/hfut/phytium-pi-os/output/build/phytium-optee-v4.6.0/optee_os/lib/libutils/ext/snprintk.c:516 (discriminator 1)
    2d18:	f9403fe0 	ldr	x0, [sp, #120]
    2d1c:	39400000 	ldrb	w0, [x0]
    2d20:	7100c01f 	cmp	w0, #0x30
    2d24:	540008e0 	b.eq	2e40 <kprintf+0x17c4>  // b.none
/home/hfut/phytium-pi-os/output/build/phytium-optee-v4.6.0/optee_os/lib/libutils/ext/snprintk.c:517
    2d28:	f9403fe0 	ldr	x0, [sp, #120]
    2d2c:	d1000400 	sub	x0, x0, #0x1
    2d30:	f9003fe0 	str	x0, [sp, #120]
    2d34:	f9403fe0 	ldr	x0, [sp, #120]
    2d38:	52800601 	mov	w1, #0x30                  	// #48
    2d3c:	39000001 	strb	w1, [x0]
/home/hfut/phytium-pi-os/output/build/phytium-optee-v4.6.0/optee_os/lib/libutils/ext/snprintk.c:518
    2d40:	14000040 	b	2e40 <kprintf+0x17c4>
/home/hfut/phytium-pi-os/output/build/phytium-optee-v4.6.0/optee_os/lib/libutils/ext/snprintk.c:523
    2d44:	f94043e2 	ldr	x2, [sp, #128]
    2d48:	b202e7e0 	mov	x0, #0xcccccccccccccccc    	// #-3689348814741910324
    2d4c:	f29999a0 	movk	x0, #0xcccd
    2d50:	9bc07c40 	umulh	x0, x2, x0
    2d54:	d343fc01 	lsr	x1, x0, #3
    2d58:	aa0103e0 	mov	x0, x1
    2d5c:	d37ef400 	lsl	x0, x0, #2
    2d60:	8b010000 	add	x0, x0, x1
    2d64:	8b000000 	add	x0, x0, x0
    2d68:	cb000041 	sub	x1, x2, x0
    2d6c:	12001c20 	and	w0, w1, #0xff
    2d70:	f9403fe1 	ldr	x1, [sp, #120]
    2d74:	d1000421 	sub	x1, x1, #0x1
    2d78:	f9003fe1 	str	x1, [sp, #120]
    2d7c:	1100c000 	add	w0, w0, #0x30
    2d80:	12001c01 	and	w1, w0, #0xff
    2d84:	f9403fe0 	ldr	x0, [sp, #120]
    2d88:	39000001 	strb	w1, [x0]
/home/hfut/phytium-pi-os/output/build/phytium-optee-v4.6.0/optee_os/lib/libutils/ext/snprintk.c:524
    2d8c:	f94043e1 	ldr	x1, [sp, #128]
    2d90:	b202e7e0 	mov	x0, #0xcccccccccccccccc    	// #-3689348814741910324
    2d94:	f29999a0 	movk	x0, #0xcccd
    2d98:	9bc07c20 	umulh	x0, x1, x0
    2d9c:	d343fc00 	lsr	x0, x0, #3
    2da0:	f90043e0 	str	x0, [sp, #128]
/home/hfut/phytium-pi-os/output/build/phytium-optee-v4.6.0/optee_os/lib/libutils/ext/snprintk.c:522
    2da4:	f94043e0 	ldr	x0, [sp, #128]
    2da8:	f100241f 	cmp	x0, #0x9
    2dac:	54fffcc8 	b.hi	2d44 <kprintf+0x16c8>  // b.pmore
/home/hfut/phytium-pi-os/output/build/phytium-optee-v4.6.0/optee_os/lib/libutils/ext/snprintk.c:526
    2db0:	f94043e0 	ldr	x0, [sp, #128]
    2db4:	12001c00 	and	w0, w0, #0xff
    2db8:	f9403fe1 	ldr	x1, [sp, #120]
    2dbc:	d1000421 	sub	x1, x1, #0x1
    2dc0:	f9003fe1 	str	x1, [sp, #120]
    2dc4:	1100c000 	add	w0, w0, #0x30
    2dc8:	12001c01 	and	w1, w0, #0xff
    2dcc:	f9403fe0 	ldr	x0, [sp, #120]
    2dd0:	39000001 	strb	w1, [x0]
/home/hfut/phytium-pi-os/output/build/phytium-optee-v4.6.0/optee_os/lib/libutils/ext/snprintk.c:527
    2dd4:	1400001e 	b	2e4c <kprintf+0x17d0>
/home/hfut/phytium-pi-os/output/build/phytium-optee-v4.6.0/optee_os/lib/libutils/ext/snprintk.c:531 (discriminator 1)
    2dd8:	f94043e0 	ldr	x0, [sp, #128]
    2ddc:	92400c00 	and	x0, x0, #0xf
    2de0:	f94047e1 	ldr	x1, [sp, #136]
    2de4:	8b000020 	add	x0, x1, x0
    2de8:	f9403fe1 	ldr	x1, [sp, #120]
    2dec:	d1000421 	sub	x1, x1, #0x1
    2df0:	f9003fe1 	str	x1, [sp, #120]
    2df4:	39400001 	ldrb	w1, [x0]
    2df8:	f9403fe0 	ldr	x0, [sp, #120]
    2dfc:	39000001 	strb	w1, [x0]
/home/hfut/phytium-pi-os/output/build/phytium-optee-v4.6.0/optee_os/lib/libutils/ext/snprintk.c:532 (discriminator 1)
    2e00:	f94043e0 	ldr	x0, [sp, #128]
    2e04:	d344fc00 	lsr	x0, x0, #4
    2e08:	f90043e0 	str	x0, [sp, #128]
/home/hfut/phytium-pi-os/output/build/phytium-optee-v4.6.0/optee_os/lib/libutils/ext/snprintk.c:533 (discriminator 1)
    2e0c:	f94043e0 	ldr	x0, [sp, #128]
    2e10:	f100001f 	cmp	x0, #0x0
    2e14:	540001a0 	b.eq	2e48 <kprintf+0x17cc>  // b.none
/home/hfut/phytium-pi-os/output/build/phytium-optee-v4.6.0/optee_os/lib/libutils/ext/snprintk.c:529
    2e18:	d503201f 	nop
    2e1c:	17ffffef 	b	2dd8 <kprintf+0x175c>
/home/hfut/phytium-pi-os/output/build/phytium-optee-v4.6.0/optee_os/lib/libutils/ext/snprintk.c:538
    2e20:	f0000100 	adrp	x0, 25000 <__text_end+0x3a64>
    2e24:	9115c000 	add	x0, x0, #0x570
    2e28:	f9003fe0 	str	x0, [sp, #120]
/home/hfut/phytium-pi-os/output/build/phytium-optee-v4.6.0/optee_os/lib/libutils/ext/snprintk.c:539
    2e2c:	f9403fe0 	ldr	x0, [sp, #120]
    2e30:	94000198 	bl	3490 <strlen>
    2e34:	b9006fe0 	str	w0, [sp, #108]
/home/hfut/phytium-pi-os/output/build/phytium-optee-v4.6.0/optee_os/lib/libutils/ext/snprintk.c:540
    2e38:	d503201f 	nop
/home/hfut/phytium-pi-os/output/build/phytium-optee-v4.6.0/optee_os/lib/libutils/ext/snprintk.c:545
    2e3c:	14000017 	b	2e98 <kprintf+0x181c>
/home/hfut/phytium-pi-os/output/build/phytium-optee-v4.6.0/optee_os/lib/libutils/ext/snprintk.c:518
    2e40:	d503201f 	nop
    2e44:	14000002 	b	2e4c <kprintf+0x17d0>
/home/hfut/phytium-pi-os/output/build/phytium-optee-v4.6.0/optee_os/lib/libutils/ext/snprintk.c:534
    2e48:	d503201f 	nop
/home/hfut/phytium-pi-os/output/build/phytium-optee-v4.6.0/optee_os/lib/libutils/ext/snprintk.c:543
    2e4c:	910283e0 	add	x0, sp, #0xa0
    2e50:	91009400 	add	x0, x0, #0x25
    2e54:	f9403fe1 	ldr	x1, [sp, #120]
    2e58:	cb010000 	sub	x0, x0, x1
    2e5c:	b9006fe0 	str	w0, [sp, #108]
/home/hfut/phytium-pi-os/output/build/phytium-optee-v4.6.0/optee_os/lib/libutils/ext/snprintk.c:545
    2e60:	1400000e 	b	2e98 <kprintf+0x181c>
/home/hfut/phytium-pi-os/output/build/phytium-optee-v4.6.0/optee_os/lib/libutils/ext/snprintk.c:547
    2e64:	b9404be0 	ldr	w0, [sp, #72]
    2e68:	7100001f 	cmp	w0, #0x0
    2e6c:	54002060 	b.eq	3278 <kprintf+0x1bfc>  // b.none
/home/hfut/phytium-pi-os/output/build/phytium-optee-v4.6.0/optee_os/lib/libutils/ext/snprintk.c:550
    2e70:	910283e0 	add	x0, sp, #0xa0
    2e74:	f9003fe0 	str	x0, [sp, #120]
/home/hfut/phytium-pi-os/output/build/phytium-optee-v4.6.0/optee_os/lib/libutils/ext/snprintk.c:551
    2e78:	b9404be0 	ldr	w0, [sp, #72]
    2e7c:	12001c01 	and	w1, w0, #0xff
    2e80:	f9403fe0 	ldr	x0, [sp, #120]
    2e84:	39000001 	strb	w1, [x0]
/home/hfut/phytium-pi-os/output/build/phytium-optee-v4.6.0/optee_os/lib/libutils/ext/snprintk.c:552
    2e88:	52800020 	mov	w0, #0x1                   	// #1
    2e8c:	b9006fe0 	str	w0, [sp, #108]
/home/hfut/phytium-pi-os/output/build/phytium-optee-v4.6.0/optee_os/lib/libutils/ext/snprintk.c:553
    2e90:	39011fff 	strb	wzr, [sp, #71]
/home/hfut/phytium-pi-os/output/build/phytium-optee-v4.6.0/optee_os/lib/libutils/ext/snprintk.c:554
    2e94:	d503201f 	nop
/home/hfut/phytium-pi-os/output/build/phytium-optee-v4.6.0/optee_os/lib/libutils/ext/snprintk.c:571
    2e98:	b94067e0 	ldr	w0, [sp, #100]
    2e9c:	b9406fe2 	ldr	w2, [sp, #108]
    2ea0:	b9406fe1 	ldr	w1, [sp, #108]
    2ea4:	6b00005f 	cmp	w2, w0
    2ea8:	1a80a020 	csel	w0, w1, w0, ge	// ge = tcont
    2eac:	b9006be0 	str	w0, [sp, #104]
/home/hfut/phytium-pi-os/output/build/phytium-optee-v4.6.0/optee_os/lib/libutils/ext/snprintk.c:572
    2eb0:	39411fe0 	ldrb	w0, [sp, #71]
    2eb4:	7100001f 	cmp	w0, #0x0
    2eb8:	540000a0 	b.eq	2ecc <kprintf+0x1850>  // b.none
/home/hfut/phytium-pi-os/output/build/phytium-optee-v4.6.0/optee_os/lib/libutils/ext/snprintk.c:573
    2ebc:	b9406be0 	ldr	w0, [sp, #104]
    2ec0:	11000400 	add	w0, w0, #0x1
    2ec4:	b9006be0 	str	w0, [sp, #104]
    2ec8:	14000008 	b	2ee8 <kprintf+0x186c>
/home/hfut/phytium-pi-os/output/build/phytium-optee-v4.6.0/optee_os/lib/libutils/ext/snprintk.c:574
    2ecc:	b94053e0 	ldr	w0, [sp, #80]
    2ed0:	121f0000 	and	w0, w0, #0x2
    2ed4:	7100001f 	cmp	w0, #0x0
    2ed8:	54000080 	b.eq	2ee8 <kprintf+0x186c>  // b.none
/home/hfut/phytium-pi-os/output/build/phytium-optee-v4.6.0/optee_os/lib/libutils/ext/snprintk.c:575
    2edc:	b9406be0 	ldr	w0, [sp, #104]
    2ee0:	11000800 	add	w0, w0, #0x2
    2ee4:	b9006be0 	str	w0, [sp, #104]
/home/hfut/phytium-pi-os/output/build/phytium-optee-v4.6.0/optee_os/lib/libutils/ext/snprintk.c:578
    2ee8:	b9405be0 	ldr	w0, [sp, #88]
    2eec:	b9406be2 	ldr	w2, [sp, #104]
    2ef0:	b9406be1 	ldr	w1, [sp, #104]
    2ef4:	6b00005f 	cmp	w2, w0
    2ef8:	1a80a020 	csel	w0, w1, w0, ge	// ge = tcont
    2efc:	b94057e1 	ldr	w1, [sp, #84]
    2f00:	0b000020 	add	w0, w1, w0
    2f04:	b90057e0 	str	w0, [sp, #84]
/home/hfut/phytium-pi-os/output/build/phytium-optee-v4.6.0/optee_os/lib/libutils/ext/snprintk.c:581
    2f08:	b94053e1 	ldr	w1, [sp, #80]
    2f0c:	52808080 	mov	w0, #0x404                 	// #1028
    2f10:	0a000020 	and	w0, w1, w0
    2f14:	7100001f 	cmp	w0, #0x0
    2f18:	540003a1 	b.ne	2f8c <kprintf+0x1910>  // b.any
/home/hfut/phytium-pi-os/output/build/phytium-optee-v4.6.0/optee_os/lib/libutils/ext/snprintk.c:582
    2f1c:	b9405be1 	ldr	w1, [sp, #88]
    2f20:	b9406be0 	ldr	w0, [sp, #104]
    2f24:	4b000020 	sub	w0, w1, w0
    2f28:	b9004fe0 	str	w0, [sp, #76]
/home/hfut/phytium-pi-os/output/build/phytium-optee-v4.6.0/optee_os/lib/libutils/ext/snprintk.c:583
    2f2c:	14000013 	b	2f78 <kprintf+0x18fc>
/home/hfut/phytium-pi-os/output/build/phytium-optee-v4.6.0/optee_os/lib/libutils/ext/snprintk.c:584
    2f30:	b94037e0 	ldr	w0, [sp, #52]
    2f34:	7100201f 	cmp	w0, #0x8
    2f38:	54000201 	b.ne	2f78 <kprintf+0x18fc>  // b.any
/home/hfut/phytium-pi-os/output/build/phytium-optee-v4.6.0/optee_os/lib/libutils/ext/snprintk.c:584 (discriminator 1)
    2f3c:	f94013e0 	ldr	x0, [sp, #32]
    2f40:	f100001f 	cmp	x0, #0x0
    2f44:	540001a0 	b.eq	2f78 <kprintf+0x18fc>  // b.none
/home/hfut/phytium-pi-os/output/build/phytium-optee-v4.6.0/optee_os/lib/libutils/ext/snprintk.c:584 (discriminator 2)
    2f48:	f94017e0 	ldr	x0, [sp, #40]
    2f4c:	f100001f 	cmp	x0, #0x0
    2f50:	540000a0 	b.eq	2f64 <kprintf+0x18e8>  // b.none
/home/hfut/phytium-pi-os/output/build/phytium-optee-v4.6.0/optee_os/lib/libutils/ext/snprintk.c:584 (discriminator 4)
    2f54:	f94013e1 	ldr	x1, [sp, #32]
    2f58:	f9404be0 	ldr	x0, [sp, #144]
    2f5c:	eb00003f 	cmp	x1, x0
    2f60:	540000c2 	b.cs	2f78 <kprintf+0x18fc>  // b.hs, b.nlast
/home/hfut/phytium-pi-os/output/build/phytium-optee-v4.6.0/optee_os/lib/libutils/ext/snprintk.c:584 (discriminator 5)
    2f64:	f94013e0 	ldr	x0, [sp, #32]
    2f68:	91000401 	add	x1, x0, #0x1
    2f6c:	f90013e1 	str	x1, [sp, #32]
    2f70:	52800401 	mov	w1, #0x20                  	// #32
    2f74:	39000001 	strb	w1, [x0]
/home/hfut/phytium-pi-os/output/build/phytium-optee-v4.6.0/optee_os/lib/libutils/ext/snprintk.c:583
    2f78:	b9404fe0 	ldr	w0, [sp, #76]
    2f7c:	51000401 	sub	w1, w0, #0x1
    2f80:	b9004fe1 	str	w1, [sp, #76]
    2f84:	7100001f 	cmp	w0, #0x0
    2f88:	54fffd4c 	b.gt	2f30 <kprintf+0x18b4>
/home/hfut/phytium-pi-os/output/build/phytium-optee-v4.6.0/optee_os/lib/libutils/ext/snprintk.c:588
    2f8c:	39411fe0 	ldrb	w0, [sp, #71]
    2f90:	7100001f 	cmp	w0, #0x0
    2f94:	54000280 	b.eq	2fe4 <kprintf+0x1968>  // b.none
/home/hfut/phytium-pi-os/output/build/phytium-optee-v4.6.0/optee_os/lib/libutils/ext/snprintk.c:589
    2f98:	b94037e0 	ldr	w0, [sp, #52]
    2f9c:	7100201f 	cmp	w0, #0x8
    2fa0:	54000741 	b.ne	3088 <kprintf+0x1a0c>  // b.any
/home/hfut/phytium-pi-os/output/build/phytium-optee-v4.6.0/optee_os/lib/libutils/ext/snprintk.c:589 (discriminator 1)
    2fa4:	f94013e0 	ldr	x0, [sp, #32]
    2fa8:	f100001f 	cmp	x0, #0x0
    2fac:	540006e0 	b.eq	3088 <kprintf+0x1a0c>  // b.none
/home/hfut/phytium-pi-os/output/build/phytium-optee-v4.6.0/optee_os/lib/libutils/ext/snprintk.c:589 (discriminator 2)
    2fb0:	f94017e0 	ldr	x0, [sp, #40]
    2fb4:	f100001f 	cmp	x0, #0x0
    2fb8:	540000a0 	b.eq	2fcc <kprintf+0x1950>  // b.none
/home/hfut/phytium-pi-os/output/build/phytium-optee-v4.6.0/optee_os/lib/libutils/ext/snprintk.c:589 (discriminator 4)
    2fbc:	f94013e1 	ldr	x1, [sp, #32]
    2fc0:	f9404be0 	ldr	x0, [sp, #144]
    2fc4:	eb00003f 	cmp	x1, x0
    2fc8:	54000602 	b.cs	3088 <kprintf+0x1a0c>  // b.hs, b.nlast
/home/hfut/phytium-pi-os/output/build/phytium-optee-v4.6.0/optee_os/lib/libutils/ext/snprintk.c:589 (discriminator 5)
    2fcc:	f94013e0 	ldr	x0, [sp, #32]
    2fd0:	91000401 	add	x1, x0, #0x1
    2fd4:	f90013e1 	str	x1, [sp, #32]
    2fd8:	39411fe1 	ldrb	w1, [sp, #71]
    2fdc:	39000001 	strb	w1, [x0]
    2fe0:	1400002a 	b	3088 <kprintf+0x1a0c>
/home/hfut/phytium-pi-os/output/build/phytium-optee-v4.6.0/optee_os/lib/libutils/ext/snprintk.c:590
    2fe4:	b94053e0 	ldr	w0, [sp, #80]
    2fe8:	121f0000 	and	w0, w0, #0x2
    2fec:	7100001f 	cmp	w0, #0x0
    2ff0:	540004c0 	b.eq	3088 <kprintf+0x1a0c>  // b.none
/home/hfut/phytium-pi-os/output/build/phytium-optee-v4.6.0/optee_os/lib/libutils/ext/snprintk.c:591
    2ff4:	b94037e0 	ldr	w0, [sp, #52]
    2ff8:	7100201f 	cmp	w0, #0x8
    2ffc:	54000201 	b.ne	303c <kprintf+0x19c0>  // b.any
/home/hfut/phytium-pi-os/output/build/phytium-optee-v4.6.0/optee_os/lib/libutils/ext/snprintk.c:591 (discriminator 1)
    3000:	f94013e0 	ldr	x0, [sp, #32]
    3004:	f100001f 	cmp	x0, #0x0
    3008:	540001a0 	b.eq	303c <kprintf+0x19c0>  // b.none
/home/hfut/phytium-pi-os/output/build/phytium-optee-v4.6.0/optee_os/lib/libutils/ext/snprintk.c:591 (discriminator 2)
    300c:	f94017e0 	ldr	x0, [sp, #40]
    3010:	f100001f 	cmp	x0, #0x0
    3014:	540000a0 	b.eq	3028 <kprintf+0x19ac>  // b.none
/home/hfut/phytium-pi-os/output/build/phytium-optee-v4.6.0/optee_os/lib/libutils/ext/snprintk.c:591 (discriminator 4)
    3018:	f94013e1 	ldr	x1, [sp, #32]
    301c:	f9404be0 	ldr	x0, [sp, #144]
    3020:	eb00003f 	cmp	x1, x0
    3024:	540000c2 	b.cs	303c <kprintf+0x19c0>  // b.hs, b.nlast
/home/hfut/phytium-pi-os/output/build/phytium-optee-v4.6.0/optee_os/lib/libutils/ext/snprintk.c:591 (discriminator 5)
    3028:	f94013e0 	ldr	x0, [sp, #32]
    302c:	91000401 	add	x1, x0, #0x1
    3030:	f90013e1 	str	x1, [sp, #32]
    3034:	52800601 	mov	w1, #0x30                  	// #48
    3038:	39000001 	strb	w1, [x0]
/home/hfut/phytium-pi-os/output/build/phytium-optee-v4.6.0/optee_os/lib/libutils/ext/snprintk.c:592
    303c:	b94037e0 	ldr	w0, [sp, #52]
    3040:	7100201f 	cmp	w0, #0x8
    3044:	54000221 	b.ne	3088 <kprintf+0x1a0c>  // b.any
/home/hfut/phytium-pi-os/output/build/phytium-optee-v4.6.0/optee_os/lib/libutils/ext/snprintk.c:592 (discriminator 1)
    3048:	f94013e0 	ldr	x0, [sp, #32]
    304c:	f100001f 	cmp	x0, #0x0
    3050:	540001c0 	b.eq	3088 <kprintf+0x1a0c>  // b.none
/home/hfut/phytium-pi-os/output/build/phytium-optee-v4.6.0/optee_os/lib/libutils/ext/snprintk.c:592 (discriminator 2)
    3054:	f94017e0 	ldr	x0, [sp, #40]
    3058:	f100001f 	cmp	x0, #0x0
    305c:	540000a0 	b.eq	3070 <kprintf+0x19f4>  // b.none
/home/hfut/phytium-pi-os/output/build/phytium-optee-v4.6.0/optee_os/lib/libutils/ext/snprintk.c:592 (discriminator 4)
    3060:	f94013e1 	ldr	x1, [sp, #32]
    3064:	f9404be0 	ldr	x0, [sp, #144]
    3068:	eb00003f 	cmp	x1, x0
    306c:	540000e2 	b.cs	3088 <kprintf+0x1a0c>  // b.hs, b.nlast
/home/hfut/phytium-pi-os/output/build/phytium-optee-v4.6.0/optee_os/lib/libutils/ext/snprintk.c:592 (discriminator 5)
    3070:	f94013e0 	ldr	x0, [sp, #32]
    3074:	91000401 	add	x1, x0, #0x1
    3078:	f90013e1 	str	x1, [sp, #32]
    307c:	b9404be1 	ldr	w1, [sp, #72]
    3080:	12001c21 	and	w1, w1, #0xff
    3084:	39000001 	strb	w1, [x0]
/home/hfut/phytium-pi-os/output/build/phytium-optee-v4.6.0/optee_os/lib/libutils/ext/snprintk.c:596
    3088:	b94053e1 	ldr	w1, [sp, #80]
    308c:	52808080 	mov	w0, #0x404                 	// #1028
    3090:	0a000020 	and	w0, w1, w0
    3094:	7110001f 	cmp	w0, #0x400
    3098:	540003a1 	b.ne	310c <kprintf+0x1a90>  // b.any
/home/hfut/phytium-pi-os/output/build/phytium-optee-v4.6.0/optee_os/lib/libutils/ext/snprintk.c:597
    309c:	b9405be1 	ldr	w1, [sp, #88]
    30a0:	b9406be0 	ldr	w0, [sp, #104]
    30a4:	4b000020 	sub	w0, w1, w0
    30a8:	b9004fe0 	str	w0, [sp, #76]
/home/hfut/phytium-pi-os/output/build/phytium-optee-v4.6.0/optee_os/lib/libutils/ext/snprintk.c:598
    30ac:	14000013 	b	30f8 <kprintf+0x1a7c>
/home/hfut/phytium-pi-os/output/build/phytium-optee-v4.6.0/optee_os/lib/libutils/ext/snprintk.c:599
    30b0:	b94037e0 	ldr	w0, [sp, #52]
    30b4:	7100201f 	cmp	w0, #0x8
    30b8:	54000201 	b.ne	30f8 <kprintf+0x1a7c>  // b.any
/home/hfut/phytium-pi-os/output/build/phytium-optee-v4.6.0/optee_os/lib/libutils/ext/snprintk.c:599 (discriminator 1)
    30bc:	f94013e0 	ldr	x0, [sp, #32]
    30c0:	f100001f 	cmp	x0, #0x0
    30c4:	540001a0 	b.eq	30f8 <kprintf+0x1a7c>  // b.none
/home/hfut/phytium-pi-os/output/build/phytium-optee-v4.6.0/optee_os/lib/libutils/ext/snprintk.c:599 (discriminator 2)
    30c8:	f94017e0 	ldr	x0, [sp, #40]
    30cc:	f100001f 	cmp	x0, #0x0
    30d0:	540000a0 	b.eq	30e4 <kprintf+0x1a68>  // b.none
/home/hfut/phytium-pi-os/output/build/phytium-optee-v4.6.0/optee_os/lib/libutils/ext/snprintk.c:599 (discriminator 4)
    30d4:	f94013e1 	ldr	x1, [sp, #32]
    30d8:	f9404be0 	ldr	x0, [sp, #144]
    30dc:	eb00003f 	cmp	x1, x0
    30e0:	540000c2 	b.cs	30f8 <kprintf+0x1a7c>  // b.hs, b.nlast
/home/hfut/phytium-pi-os/output/build/phytium-optee-v4.6.0/optee_os/lib/libutils/ext/snprintk.c:599 (discriminator 5)
    30e4:	f94013e0 	ldr	x0, [sp, #32]
    30e8:	91000401 	add	x1, x0, #0x1
    30ec:	f90013e1 	str	x1, [sp, #32]
    30f0:	52800601 	mov	w1, #0x30                  	// #48
    30f4:	39000001 	strb	w1, [x0]
/home/hfut/phytium-pi-os/output/build/phytium-optee-v4.6.0/optee_os/lib/libutils/ext/snprintk.c:598
    30f8:	b9404fe0 	ldr	w0, [sp, #76]
    30fc:	51000401 	sub	w1, w0, #0x1
    3100:	b9004fe1 	str	w1, [sp, #76]
    3104:	7100001f 	cmp	w0, #0x0
    3108:	54fffd4c 	b.gt	30b0 <kprintf+0x1a34>
/home/hfut/phytium-pi-os/output/build/phytium-optee-v4.6.0/optee_os/lib/libutils/ext/snprintk.c:603
    310c:	b94067e1 	ldr	w1, [sp, #100]
    3110:	b9406fe0 	ldr	w0, [sp, #108]
    3114:	4b000020 	sub	w0, w1, w0
    3118:	b9004fe0 	str	w0, [sp, #76]
/home/hfut/phytium-pi-os/output/build/phytium-optee-v4.6.0/optee_os/lib/libutils/ext/snprintk.c:604
    311c:	14000013 	b	3168 <kprintf+0x1aec>
/home/hfut/phytium-pi-os/output/build/phytium-optee-v4.6.0/optee_os/lib/libutils/ext/snprintk.c:605
    3120:	b94037e0 	ldr	w0, [sp, #52]
    3124:	7100201f 	cmp	w0, #0x8
    3128:	54000201 	b.ne	3168 <kprintf+0x1aec>  // b.any
/home/hfut/phytium-pi-os/output/build/phytium-optee-v4.6.0/optee_os/lib/libutils/ext/snprintk.c:605 (discriminator 1)
    312c:	f94013e0 	ldr	x0, [sp, #32]
    3130:	f100001f 	cmp	x0, #0x0
    3134:	540001a0 	b.eq	3168 <kprintf+0x1aec>  // b.none
/home/hfut/phytium-pi-os/output/build/phytium-optee-v4.6.0/optee_os/lib/libutils/ext/snprintk.c:605 (discriminator 2)
    3138:	f94017e0 	ldr	x0, [sp, #40]
    313c:	f100001f 	cmp	x0, #0x0
    3140:	540000a0 	b.eq	3154 <kprintf+0x1ad8>  // b.none
/home/hfut/phytium-pi-os/output/build/phytium-optee-v4.6.0/optee_os/lib/libutils/ext/snprintk.c:605 (discriminator 4)
    3144:	f94013e1 	ldr	x1, [sp, #32]
    3148:	f9404be0 	ldr	x0, [sp, #144]
    314c:	eb00003f 	cmp	x1, x0
    3150:	540000c2 	b.cs	3168 <kprintf+0x1aec>  // b.hs, b.nlast
/home/hfut/phytium-pi-os/output/build/phytium-optee-v4.6.0/optee_os/lib/libutils/ext/snprintk.c:605 (discriminator 5)
    3154:	f94013e0 	ldr	x0, [sp, #32]
    3158:	91000401 	add	x1, x0, #0x1
    315c:	f90013e1 	str	x1, [sp, #32]
    3160:	52800601 	mov	w1, #0x30                  	// #48
    3164:	39000001 	strb	w1, [x0]
/home/hfut/phytium-pi-os/output/build/phytium-optee-v4.6.0/optee_os/lib/libutils/ext/snprintk.c:604
    3168:	b9404fe0 	ldr	w0, [sp, #76]
    316c:	51000401 	sub	w1, w0, #0x1
    3170:	b9004fe1 	str	w1, [sp, #76]
    3174:	7100001f 	cmp	w0, #0x0
    3178:	54fffd4c 	b.gt	3120 <kprintf+0x1aa4>
/home/hfut/phytium-pi-os/output/build/phytium-optee-v4.6.0/optee_os/lib/libutils/ext/snprintk.c:608
    317c:	14000017 	b	31d8 <kprintf+0x1b5c>
/home/hfut/phytium-pi-os/output/build/phytium-optee-v4.6.0/optee_os/lib/libutils/ext/snprintk.c:609
    3180:	b94037e0 	ldr	w0, [sp, #52]
    3184:	7100201f 	cmp	w0, #0x8
    3188:	54000221 	b.ne	31cc <kprintf+0x1b50>  // b.any
/home/hfut/phytium-pi-os/output/build/phytium-optee-v4.6.0/optee_os/lib/libutils/ext/snprintk.c:609 (discriminator 1)
    318c:	f94013e0 	ldr	x0, [sp, #32]
    3190:	f100001f 	cmp	x0, #0x0
    3194:	540001c0 	b.eq	31cc <kprintf+0x1b50>  // b.none
/home/hfut/phytium-pi-os/output/build/phytium-optee-v4.6.0/optee_os/lib/libutils/ext/snprintk.c:609 (discriminator 2)
    3198:	f94017e0 	ldr	x0, [sp, #40]
    319c:	f100001f 	cmp	x0, #0x0
    31a0:	540000a0 	b.eq	31b4 <kprintf+0x1b38>  // b.none
/home/hfut/phytium-pi-os/output/build/phytium-optee-v4.6.0/optee_os/lib/libutils/ext/snprintk.c:609 (discriminator 4)
    31a4:	f94013e1 	ldr	x1, [sp, #32]
    31a8:	f9404be0 	ldr	x0, [sp, #144]
    31ac:	eb00003f 	cmp	x1, x0
    31b0:	540000e2 	b.cs	31cc <kprintf+0x1b50>  // b.hs, b.nlast
/home/hfut/phytium-pi-os/output/build/phytium-optee-v4.6.0/optee_os/lib/libutils/ext/snprintk.c:609 (discriminator 5)
    31b4:	f94013e0 	ldr	x0, [sp, #32]
    31b8:	91000401 	add	x1, x0, #0x1
    31bc:	f90013e1 	str	x1, [sp, #32]
    31c0:	f9403fe1 	ldr	x1, [sp, #120]
    31c4:	39400021 	ldrb	w1, [x1]
    31c8:	39000001 	strb	w1, [x0]
